

Microchip MPLAB XC8 Assembler V2.45 build 20230818022343 
                                                                                               Tue Oct 31 21:16:32 2023

Microchip MPLAB XC8 C Compiler v2.45 (Free license) build 20230818022343 Og1 
     1                           	processor	16F18855
     2                           	pagewidth 120
     3                           	opt	flic
     4                           	psect	cinit,global,class=CODE,merge=1,delta=2
     5                           	psect	bssCOMMON,global,class=COMMON,space=1,delta=1,noexec
     6                           	psect	cstackCOMMON,global,class=COMMON,space=1,delta=1,noexec
     7                           	psect	maintext,global,class=CODE,merge=1,split=1,delta=2
     8                           	psect	text1,local,class=CODE,merge=1,delta=2
     9                           	psect	text2,local,class=CODE,merge=1,delta=2
    10                           	psect	text3,local,class=CODE,merge=1,delta=2
    11                           	psect	text4,local,class=CODE,merge=1,delta=2
    12                           	psect	text5,local,class=CODE,merge=1,delta=2
    13                           	psect	text6,local,class=CODE,merge=1,delta=2
    14                           	psect	idloc,global,abs,ovrld,class=IDLOC,space=5,delta=2,noexec
    15                           	psect	config,global,abs,ovrld,class=CONFIG,space=4,delta=2,noexec
    16                           	dabs	1,0x7E,2
    17     0000                     
    18                           ; Generated 19/10/2023 GMT
    19                           ; 
    20                           ; Copyright © 2023, Microchip Technology Inc. and its subsidiaries ("Microchip")
    21                           ; All rights reserved.
    22                           ; 
    23                           ; This software is developed by Microchip Technology Inc. and its subsidiaries ("Microch
      +                          ip").
    24                           ; 
    25                           ; Redistribution and use in source and binary forms, with or without modification, are
    26                           ; permitted provided that the following conditions are met:
    27                           ; 
    28                           ;     1. Redistributions of source code must retain the above copyright notice, this lis
      +                          t of
    29                           ;        conditions and the following disclaimer.
    30                           ; 
    31                           ;     2. Redistributions in binary form must reproduce the above copyright notice, this 
      +                          list
    32                           ;        of conditions and the following disclaimer in the documentation and/or other
    33                           ;        materials provided with the distribution. Publication is not required when
    34                           ;        this file is used in an embedded application.
    35                           ; 
    36                           ;     3. Microchip's name may not be used to endorse or promote products derived from th
      +                          is
    37                           ;        software without specific prior written permission.
    38                           ; 
    39                           ; THIS SOFTWARE IS PROVIDED BY MICROCHIP "AS IS" AND ANY EXPRESS OR IMPLIED WARRANTIES,
    40                           ; INCLUDING, BUT NOT LIMITED TO, THE IMPLIED WARRANTIES OF MERCHANTABILITY AND FITNESS F
      +                          OR
    41                           ; PURPOSE ARE DISCLAIMED.  IN NO EVENT SHALL MICROCHIP BE LIABLE FOR ANY DIRECT, INDIREC
      +                          T,
    42                           ; INCIDENTAL, SPECIAL, EXEMPLARY, OR CONSEQUENTIAL DAMAGES (INCLUDING BUT NOT LIMITED TO
    43                           ; PROCUREMENT OF SUBSTITUTE GOODS OR SERVICES; LOSS OF USE, DATA OR PROFITS; OR BUSINESS
    44                           ; INTERRUPTION) HOWSOEVER CAUSED AND ON ANY THEORY OF LIABILITY, WHETHER IN CONTRACT, ST
      +                          RICT
    45                           ; LIABILITY, OR TORT (INCLUDING NEGLIGENCE OR OTHERWISE) ARISING IN ANY WAY OUT OF THE U
      +                          SE OF
    46                           ; THIS SOFTWARE, EVEN IF ADVISED OF THE POSSIBILITY OF SUCH DAMAGE.
    47                           ; 
    48                           ; 
    49                           ; Code-generator required, PIC16F18855 Definitions
    50                           ; 
    51                           ; SFR Addresses
    52     0000                     	;# 
    53     0001                     	;# 
    54     0002                     	;# 
    55     0003                     	;# 
    56     0004                     	;# 
    57     0005                     	;# 
    58     0006                     	;# 
    59     0007                     	;# 
    60     0008                     	;# 
    61     0009                     	;# 
    62     000A                     	;# 
    63     000B                     	;# 
    64     000C                     	;# 
    65     000D                     	;# 
    66     000E                     	;# 
    67     0010                     	;# 
    68     0011                     	;# 
    69     0012                     	;# 
    70     0013                     	;# 
    71     0016                     	;# 
    72     0017                     	;# 
    73     0018                     	;# 
    74     001C                     	;# 
    75     001C                     	;# 
    76     001D                     	;# 
    77     001D                     	;# 
    78     001E                     	;# 
    79     001F                     	;# 
    80     008C                     	;# 
    81     008C                     	;# 
    82     008D                     	;# 
    83     008E                     	;# 
    84     008E                     	;# 
    85     008F                     	;# 
    86     0090                     	;# 
    87     0090                     	;# 
    88     0091                     	;# 
    89     0093                     	;# 
    90     0094                     	;# 
    91     0095                     	;# 
    92     0096                     	;# 
    93     0097                     	;# 
    94     0098                     	;# 
    95     0099                     	;# 
    96     009A                     	;# 
    97     009B                     	;# 
    98     009C                     	;# 
    99     009D                     	;# 
   100     009E                     	;# 
   101     010C                     	;# 
   102     010D                     	;# 
   103     010E                     	;# 
   104     010E                     	;# 
   105     010F                     	;# 
   106     0110                     	;# 
   107     0110                     	;# 
   108     0111                     	;# 
   109     0112                     	;# 
   110     0112                     	;# 
   111     0113                     	;# 
   112     0114                     	;# 
   113     0114                     	;# 
   114     0115                     	;# 
   115     0116                     	;# 
   116     0116                     	;# 
   117     0117                     	;# 
   118     0119                     	;# 
   119     0119                     	;# 
   120     0119                     	;# 
   121     011A                     	;# 
   122     011A                     	;# 
   123     011A                     	;# 
   124     011B                     	;# 
   125     011B                     	;# 
   126     011B                     	;# 
   127     011B                     	;# 
   128     011B                     	;# 
   129     011C                     	;# 
   130     011C                     	;# 
   131     011C                     	;# 
   132     011D                     	;# 
   133     011D                     	;# 
   134     011D                     	;# 
   135     011E                     	;# 
   136     011E                     	;# 
   137     011E                     	;# 
   138     011F                     	;# 
   139     011F                     	;# 
   140     011F                     	;# 
   141     011F                     	;# 
   142     011F                     	;# 
   143     018C                     	;# 
   144     018D                     	;# 
   145     018E                     	;# 
   146     018F                     	;# 
   147     0190                     	;# 
   148     0191                     	;# 
   149     0192                     	;# 
   150     0196                     	;# 
   151     0197                     	;# 
   152     0198                     	;# 
   153     0199                     	;# 
   154     019A                     	;# 
   155     019B                     	;# 
   156     019C                     	;# 
   157     020C                     	;# 
   158     020C                     	;# 
   159     020D                     	;# 
   160     020E                     	;# 
   161     020F                     	;# 
   162     020F                     	;# 
   163     0210                     	;# 
   164     0210                     	;# 
   165     0211                     	;# 
   166     0211                     	;# 
   167     0212                     	;# 
   168     0212                     	;# 
   169     0213                     	;# 
   170     0214                     	;# 
   171     0215                     	;# 
   172     0215                     	;# 
   173     0216                     	;# 
   174     0216                     	;# 
   175     0217                     	;# 
   176     0217                     	;# 
   177     0218                     	;# 
   178     0218                     	;# 
   179     0219                     	;# 
   180     021A                     	;# 
   181     021B                     	;# 
   182     021B                     	;# 
   183     021C                     	;# 
   184     021C                     	;# 
   185     021D                     	;# 
   186     021D                     	;# 
   187     021E                     	;# 
   188     021F                     	;# 
   189     028C                     	;# 
   190     028C                     	;# 
   191     028D                     	;# 
   192     028D                     	;# 
   193     028E                     	;# 
   194     028F                     	;# 
   195     0290                     	;# 
   196     0290                     	;# 
   197     0291                     	;# 
   198     0292                     	;# 
   199     0292                     	;# 
   200     0293                     	;# 
   201     0293                     	;# 
   202     0294                     	;# 
   203     0295                     	;# 
   204     0296                     	;# 
   205     0296                     	;# 
   206     0297                     	;# 
   207     0298                     	;# 
   208     0298                     	;# 
   209     0299                     	;# 
   210     0299                     	;# 
   211     029A                     	;# 
   212     029B                     	;# 
   213     029C                     	;# 
   214     029C                     	;# 
   215     029D                     	;# 
   216     030C                     	;# 
   217     030C                     	;# 
   218     030D                     	;# 
   219     030E                     	;# 
   220     030F                     	;# 
   221     0310                     	;# 
   222     0310                     	;# 
   223     0311                     	;# 
   224     0312                     	;# 
   225     0313                     	;# 
   226     0314                     	;# 
   227     0314                     	;# 
   228     0315                     	;# 
   229     0316                     	;# 
   230     0317                     	;# 
   231     0318                     	;# 
   232     0318                     	;# 
   233     0319                     	;# 
   234     031A                     	;# 
   235     031B                     	;# 
   236     031C                     	;# 
   237     031C                     	;# 
   238     031D                     	;# 
   239     031E                     	;# 
   240     031F                     	;# 
   241     038C                     	;# 
   242     038C                     	;# 
   243     038D                     	;# 
   244     038E                     	;# 
   245     0390                     	;# 
   246     0390                     	;# 
   247     0391                     	;# 
   248     0392                     	;# 
   249     040C                     	;# 
   250     040D                     	;# 
   251     040E                     	;# 
   252     040F                     	;# 
   253     0410                     	;# 
   254     0411                     	;# 
   255     0416                     	;# 
   256     0416                     	;# 
   257     0417                     	;# 
   258     0418                     	;# 
   259     0418                     	;# 
   260     0419                     	;# 
   261     041A                     	;# 
   262     041A                     	;# 
   263     041B                     	;# 
   264     041C                     	;# 
   265     041C                     	;# 
   266     041D                     	;# 
   267     041E                     	;# 
   268     041F                     	;# 
   269     048C                     	;# 
   270     048C                     	;# 
   271     048D                     	;# 
   272     048E                     	;# 
   273     048F                     	;# 
   274     048F                     	;# 
   275     0490                     	;# 
   276     0491                     	;# 
   277     0492                     	;# 
   278     0492                     	;# 
   279     0493                     	;# 
   280     0494                     	;# 
   281     0495                     	;# 
   282     0495                     	;# 
   283     0496                     	;# 
   284     0497                     	;# 
   285     0498                     	;# 
   286     0499                     	;# 
   287     049A                     	;# 
   288     049B                     	;# 
   289     049C                     	;# 
   290     049D                     	;# 
   291     050C                     	;# 
   292     050C                     	;# 
   293     050D                     	;# 
   294     050E                     	;# 
   295     050F                     	;# 
   296     050F                     	;# 
   297     0510                     	;# 
   298     0511                     	;# 
   299     0512                     	;# 
   300     0512                     	;# 
   301     0513                     	;# 
   302     0514                     	;# 
   303     0515                     	;# 
   304     0515                     	;# 
   305     0516                     	;# 
   306     0517                     	;# 
   307     0518                     	;# 
   308     0519                     	;# 
   309     051A                     	;# 
   310     051B                     	;# 
   311     051C                     	;# 
   312     051D                     	;# 
   313     058C                     	;# 
   314     058C                     	;# 
   315     058D                     	;# 
   316     058E                     	;# 
   317     058F                     	;# 
   318     058F                     	;# 
   319     0590                     	;# 
   320     0591                     	;# 
   321     0592                     	;# 
   322     0593                     	;# 
   323     060C                     	;# 
   324     060D                     	;# 
   325     060E                     	;# 
   326     060F                     	;# 
   327     0610                     	;# 
   328     0611                     	;# 
   329     0612                     	;# 
   330     0613                     	;# 
   331     0614                     	;# 
   332     0616                     	;# 
   333     0617                     	;# 
   334     0618                     	;# 
   335     0619                     	;# 
   336     061A                     	;# 
   337     061B                     	;# 
   338     061C                     	;# 
   339     061D                     	;# 
   340     061E                     	;# 
   341     068C                     	;# 
   342     068D                     	;# 
   343     068E                     	;# 
   344     068F                     	;# 
   345     0690                     	;# 
   346     0691                     	;# 
   347     0692                     	;# 
   348     0693                     	;# 
   349     0694                     	;# 
   350     070C                     	;# 
   351     070D                     	;# 
   352     070E                     	;# 
   353     070F                     	;# 
   354     0710                     	;# 
   355     0711                     	;# 
   356     0712                     	;# 
   357     0713                     	;# 
   358     0714                     	;# 
   359     0716                     	;# 
   360     0717                     	;# 
   361     0718                     	;# 
   362     0719                     	;# 
   363     071A                     	;# 
   364     071B                     	;# 
   365     071C                     	;# 
   366     071D                     	;# 
   367     071E                     	;# 
   368     0796                     	;# 
   369     0797                     	;# 
   370     0798                     	;# 
   371     0799                     	;# 
   372     079A                     	;# 
   373     079B                     	;# 
   374     080C                     	;# 
   375     080D                     	;# 
   376     080E                     	;# 
   377     080F                     	;# 
   378     0810                     	;# 
   379     0811                     	;# 
   380     0812                     	;# 
   381     0813                     	;# 
   382     0814                     	;# 
   383     081A                     	;# 
   384     081B                     	;# 
   385     081C                     	;# 
   386     081D                     	;# 
   387     081E                     	;# 
   388     081F                     	;# 
   389     088C                     	;# 
   390     088D                     	;# 
   391     088E                     	;# 
   392     088F                     	;# 
   393     0890                     	;# 
   394     0891                     	;# 
   395     0892                     	;# 
   396     0893                     	;# 
   397     0895                     	;# 
   398     0896                     	;# 
   399     0897                     	;# 
   400     0898                     	;# 
   401     0899                     	;# 
   402     089A                     	;# 
   403     089B                     	;# 
   404     090C                     	;# 
   405     090E                     	;# 
   406     090F                     	;# 
   407     091F                     	;# 
   408     091F                     	;# 
   409     098F                     	;# 
   410     098F                     	;# 
   411     0990                     	;# 
   412     0991                     	;# 
   413     0992                     	;# 
   414     0993                     	;# 
   415     0994                     	;# 
   416     0995                     	;# 
   417     0996                     	;# 
   418     0997                     	;# 
   419     0E0F                     	;# 
   420     0E10                     	;# 
   421     0E11                     	;# 
   422     0E12                     	;# 
   423     0E13                     	;# 
   424     0E14                     	;# 
   425     0E15                     	;# 
   426     0E16                     	;# 
   427     0E17                     	;# 
   428     0E18                     	;# 
   429     0E19                     	;# 
   430     0E1A                     	;# 
   431     0E1B                     	;# 
   432     0E1C                     	;# 
   433     0E1D                     	;# 
   434     0E1E                     	;# 
   435     0E1F                     	;# 
   436     0E20                     	;# 
   437     0E21                     	;# 
   438     0E22                     	;# 
   439     0E23                     	;# 
   440     0E24                     	;# 
   441     0E25                     	;# 
   442     0E26                     	;# 
   443     0E27                     	;# 
   444     0E28                     	;# 
   445     0E29                     	;# 
   446     0E2A                     	;# 
   447     0E2B                     	;# 
   448     0E2C                     	;# 
   449     0E2D                     	;# 
   450     0E2E                     	;# 
   451     0E2F                     	;# 
   452     0E30                     	;# 
   453     0E31                     	;# 
   454     0E32                     	;# 
   455     0E33                     	;# 
   456     0E34                     	;# 
   457     0E35                     	;# 
   458     0E36                     	;# 
   459     0E37                     	;# 
   460     0E8F                     	;# 
   461     0E90                     	;# 
   462     0E91                     	;# 
   463     0E92                     	;# 
   464     0E93                     	;# 
   465     0E94                     	;# 
   466     0E95                     	;# 
   467     0E96                     	;# 
   468     0E97                     	;# 
   469     0E9C                     	;# 
   470     0E9D                     	;# 
   471     0E9E                     	;# 
   472     0EA1                     	;# 
   473     0EA2                     	;# 
   474     0EA3                     	;# 
   475     0EA4                     	;# 
   476     0EA5                     	;# 
   477     0EA9                     	;# 
   478     0EAA                     	;# 
   479     0EAB                     	;# 
   480     0EAC                     	;# 
   481     0EB1                     	;# 
   482     0EB2                     	;# 
   483     0EB3                     	;# 
   484     0EB8                     	;# 
   485     0EB9                     	;# 
   486     0EBA                     	;# 
   487     0EBB                     	;# 
   488     0EBC                     	;# 
   489     0EBD                     	;# 
   490     0EBE                     	;# 
   491     0EC3                     	;# 
   492     0EC5                     	;# 
   493     0EC6                     	;# 
   494     0EC7                     	;# 
   495     0EC8                     	;# 
   496     0EC9                     	;# 
   497     0ECA                     	;# 
   498     0ECB                     	;# 
   499     0ECC                     	;# 
   500     0F10                     	;# 
   501     0F11                     	;# 
   502     0F12                     	;# 
   503     0F13                     	;# 
   504     0F14                     	;# 
   505     0F15                     	;# 
   506     0F16                     	;# 
   507     0F17                     	;# 
   508     0F18                     	;# 
   509     0F19                     	;# 
   510     0F1A                     	;# 
   511     0F1B                     	;# 
   512     0F1C                     	;# 
   513     0F1D                     	;# 
   514     0F1E                     	;# 
   515     0F1F                     	;# 
   516     0F20                     	;# 
   517     0F21                     	;# 
   518     0F22                     	;# 
   519     0F23                     	;# 
   520     0F24                     	;# 
   521     0F25                     	;# 
   522     0F26                     	;# 
   523     0F27                     	;# 
   524     0F38                     	;# 
   525     0F39                     	;# 
   526     0F3A                     	;# 
   527     0F3B                     	;# 
   528     0F3C                     	;# 
   529     0F3D                     	;# 
   530     0F3E                     	;# 
   531     0F3F                     	;# 
   532     0F40                     	;# 
   533     0F41                     	;# 
   534     0F43                     	;# 
   535     0F44                     	;# 
   536     0F45                     	;# 
   537     0F46                     	;# 
   538     0F47                     	;# 
   539     0F48                     	;# 
   540     0F49                     	;# 
   541     0F4A                     	;# 
   542     0F4B                     	;# 
   543     0F4C                     	;# 
   544     0F4E                     	;# 
   545     0F4F                     	;# 
   546     0F50                     	;# 
   547     0F51                     	;# 
   548     0F52                     	;# 
   549     0F53                     	;# 
   550     0F54                     	;# 
   551     0F55                     	;# 
   552     0F56                     	;# 
   553     0F57                     	;# 
   554     0F65                     	;# 
   555     0F68                     	;# 
   556     0F69                     	;# 
   557     0F6A                     	;# 
   558     0F6B                     	;# 
   559     0FE4                     	;# 
   560     0FE5                     	;# 
   561     0FE6                     	;# 
   562     0FE7                     	;# 
   563     0FE8                     	;# 
   564     0FE9                     	;# 
   565     0FEA                     	;# 
   566     0FEB                     	;# 
   567     0FED                     	;# 
   568     0FEE                     	;# 
   569     0FEF                     	;# 
   570     0000                     	;# 
   571     0001                     	;# 
   572     0002                     	;# 
   573     0003                     	;# 
   574     0004                     	;# 
   575     0005                     	;# 
   576     0006                     	;# 
   577     0007                     	;# 
   578     0008                     	;# 
   579     0009                     	;# 
   580     000A                     	;# 
   581     000B                     	;# 
   582     000C                     	;# 
   583     000D                     	;# 
   584     000E                     	;# 
   585     0010                     	;# 
   586     0011                     	;# 
   587     0012                     	;# 
   588     0013                     	;# 
   589     0016                     	;# 
   590     0017                     	;# 
   591     0018                     	;# 
   592     001C                     	;# 
   593     001C                     	;# 
   594     001D                     	;# 
   595     001D                     	;# 
   596     001E                     	;# 
   597     001F                     	;# 
   598     008C                     	;# 
   599     008C                     	;# 
   600     008D                     	;# 
   601     008E                     	;# 
   602     008E                     	;# 
   603     008F                     	;# 
   604     0090                     	;# 
   605     0090                     	;# 
   606     0091                     	;# 
   607     0093                     	;# 
   608     0094                     	;# 
   609     0095                     	;# 
   610     0096                     	;# 
   611     0097                     	;# 
   612     0098                     	;# 
   613     0099                     	;# 
   614     009A                     	;# 
   615     009B                     	;# 
   616     009C                     	;# 
   617     009D                     	;# 
   618     009E                     	;# 
   619     010C                     	;# 
   620     010D                     	;# 
   621     010E                     	;# 
   622     010E                     	;# 
   623     010F                     	;# 
   624     0110                     	;# 
   625     0110                     	;# 
   626     0111                     	;# 
   627     0112                     	;# 
   628     0112                     	;# 
   629     0113                     	;# 
   630     0114                     	;# 
   631     0114                     	;# 
   632     0115                     	;# 
   633     0116                     	;# 
   634     0116                     	;# 
   635     0117                     	;# 
   636     0119                     	;# 
   637     0119                     	;# 
   638     0119                     	;# 
   639     011A                     	;# 
   640     011A                     	;# 
   641     011A                     	;# 
   642     011B                     	;# 
   643     011B                     	;# 
   644     011B                     	;# 
   645     011B                     	;# 
   646     011B                     	;# 
   647     011C                     	;# 
   648     011C                     	;# 
   649     011C                     	;# 
   650     011D                     	;# 
   651     011D                     	;# 
   652     011D                     	;# 
   653     011E                     	;# 
   654     011E                     	;# 
   655     011E                     	;# 
   656     011F                     	;# 
   657     011F                     	;# 
   658     011F                     	;# 
   659     011F                     	;# 
   660     011F                     	;# 
   661     018C                     	;# 
   662     018D                     	;# 
   663     018E                     	;# 
   664     018F                     	;# 
   665     0190                     	;# 
   666     0191                     	;# 
   667     0192                     	;# 
   668     0196                     	;# 
   669     0197                     	;# 
   670     0198                     	;# 
   671     0199                     	;# 
   672     019A                     	;# 
   673     019B                     	;# 
   674     019C                     	;# 
   675     020C                     	;# 
   676     020C                     	;# 
   677     020D                     	;# 
   678     020E                     	;# 
   679     020F                     	;# 
   680     020F                     	;# 
   681     0210                     	;# 
   682     0210                     	;# 
   683     0211                     	;# 
   684     0211                     	;# 
   685     0212                     	;# 
   686     0212                     	;# 
   687     0213                     	;# 
   688     0214                     	;# 
   689     0215                     	;# 
   690     0215                     	;# 
   691     0216                     	;# 
   692     0216                     	;# 
   693     0217                     	;# 
   694     0217                     	;# 
   695     0218                     	;# 
   696     0218                     	;# 
   697     0219                     	;# 
   698     021A                     	;# 
   699     021B                     	;# 
   700     021B                     	;# 
   701     021C                     	;# 
   702     021C                     	;# 
   703     021D                     	;# 
   704     021D                     	;# 
   705     021E                     	;# 
   706     021F                     	;# 
   707     028C                     	;# 
   708     028C                     	;# 
   709     028D                     	;# 
   710     028D                     	;# 
   711     028E                     	;# 
   712     028F                     	;# 
   713     0290                     	;# 
   714     0290                     	;# 
   715     0291                     	;# 
   716     0292                     	;# 
   717     0292                     	;# 
   718     0293                     	;# 
   719     0293                     	;# 
   720     0294                     	;# 
   721     0295                     	;# 
   722     0296                     	;# 
   723     0296                     	;# 
   724     0297                     	;# 
   725     0298                     	;# 
   726     0298                     	;# 
   727     0299                     	;# 
   728     0299                     	;# 
   729     029A                     	;# 
   730     029B                     	;# 
   731     029C                     	;# 
   732     029C                     	;# 
   733     029D                     	;# 
   734     030C                     	;# 
   735     030C                     	;# 
   736     030D                     	;# 
   737     030E                     	;# 
   738     030F                     	;# 
   739     0310                     	;# 
   740     0310                     	;# 
   741     0311                     	;# 
   742     0312                     	;# 
   743     0313                     	;# 
   744     0314                     	;# 
   745     0314                     	;# 
   746     0315                     	;# 
   747     0316                     	;# 
   748     0317                     	;# 
   749     0318                     	;# 
   750     0318                     	;# 
   751     0319                     	;# 
   752     031A                     	;# 
   753     031B                     	;# 
   754     031C                     	;# 
   755     031C                     	;# 
   756     031D                     	;# 
   757     031E                     	;# 
   758     031F                     	;# 
   759     038C                     	;# 
   760     038C                     	;# 
   761     038D                     	;# 
   762     038E                     	;# 
   763     0390                     	;# 
   764     0390                     	;# 
   765     0391                     	;# 
   766     0392                     	;# 
   767     040C                     	;# 
   768     040D                     	;# 
   769     040E                     	;# 
   770     040F                     	;# 
   771     0410                     	;# 
   772     0411                     	;# 
   773     0416                     	;# 
   774     0416                     	;# 
   775     0417                     	;# 
   776     0418                     	;# 
   777     0418                     	;# 
   778     0419                     	;# 
   779     041A                     	;# 
   780     041A                     	;# 
   781     041B                     	;# 
   782     041C                     	;# 
   783     041C                     	;# 
   784     041D                     	;# 
   785     041E                     	;# 
   786     041F                     	;# 
   787     048C                     	;# 
   788     048C                     	;# 
   789     048D                     	;# 
   790     048E                     	;# 
   791     048F                     	;# 
   792     048F                     	;# 
   793     0490                     	;# 
   794     0491                     	;# 
   795     0492                     	;# 
   796     0492                     	;# 
   797     0493                     	;# 
   798     0494                     	;# 
   799     0495                     	;# 
   800     0495                     	;# 
   801     0496                     	;# 
   802     0497                     	;# 
   803     0498                     	;# 
   804     0499                     	;# 
   805     049A                     	;# 
   806     049B                     	;# 
   807     049C                     	;# 
   808     049D                     	;# 
   809     050C                     	;# 
   810     050C                     	;# 
   811     050D                     	;# 
   812     050E                     	;# 
   813     050F                     	;# 
   814     050F                     	;# 
   815     0510                     	;# 
   816     0511                     	;# 
   817     0512                     	;# 
   818     0512                     	;# 
   819     0513                     	;# 
   820     0514                     	;# 
   821     0515                     	;# 
   822     0515                     	;# 
   823     0516                     	;# 
   824     0517                     	;# 
   825     0518                     	;# 
   826     0519                     	;# 
   827     051A                     	;# 
   828     051B                     	;# 
   829     051C                     	;# 
   830     051D                     	;# 
   831     058C                     	;# 
   832     058C                     	;# 
   833     058D                     	;# 
   834     058E                     	;# 
   835     058F                     	;# 
   836     058F                     	;# 
   837     0590                     	;# 
   838     0591                     	;# 
   839     0592                     	;# 
   840     0593                     	;# 
   841     060C                     	;# 
   842     060D                     	;# 
   843     060E                     	;# 
   844     060F                     	;# 
   845     0610                     	;# 
   846     0611                     	;# 
   847     0612                     	;# 
   848     0613                     	;# 
   849     0614                     	;# 
   850     0616                     	;# 
   851     0617                     	;# 
   852     0618                     	;# 
   853     0619                     	;# 
   854     061A                     	;# 
   855     061B                     	;# 
   856     061C                     	;# 
   857     061D                     	;# 
   858     061E                     	;# 
   859     068C                     	;# 
   860     068D                     	;# 
   861     068E                     	;# 
   862     068F                     	;# 
   863     0690                     	;# 
   864     0691                     	;# 
   865     0692                     	;# 
   866     0693                     	;# 
   867     0694                     	;# 
   868     070C                     	;# 
   869     070D                     	;# 
   870     070E                     	;# 
   871     070F                     	;# 
   872     0710                     	;# 
   873     0711                     	;# 
   874     0712                     	;# 
   875     0713                     	;# 
   876     0714                     	;# 
   877     0716                     	;# 
   878     0717                     	;# 
   879     0718                     	;# 
   880     0719                     	;# 
   881     071A                     	;# 
   882     071B                     	;# 
   883     071C                     	;# 
   884     071D                     	;# 
   885     071E                     	;# 
   886     0796                     	;# 
   887     0797                     	;# 
   888     0798                     	;# 
   889     0799                     	;# 
   890     079A                     	;# 
   891     079B                     	;# 
   892     080C                     	;# 
   893     080D                     	;# 
   894     080E                     	;# 
   895     080F                     	;# 
   896     0810                     	;# 
   897     0811                     	;# 
   898     0812                     	;# 
   899     0813                     	;# 
   900     0814                     	;# 
   901     081A                     	;# 
   902     081B                     	;# 
   903     081C                     	;# 
   904     081D                     	;# 
   905     081E                     	;# 
   906     081F                     	;# 
   907     088C                     	;# 
   908     088D                     	;# 
   909     088E                     	;# 
   910     088F                     	;# 
   911     0890                     	;# 
   912     0891                     	;# 
   913     0892                     	;# 
   914     0893                     	;# 
   915     0895                     	;# 
   916     0896                     	;# 
   917     0897                     	;# 
   918     0898                     	;# 
   919     0899                     	;# 
   920     089A                     	;# 
   921     089B                     	;# 
   922     090C                     	;# 
   923     090E                     	;# 
   924     090F                     	;# 
   925     091F                     	;# 
   926     091F                     	;# 
   927     098F                     	;# 
   928     098F                     	;# 
   929     0990                     	;# 
   930     0991                     	;# 
   931     0992                     	;# 
   932     0993                     	;# 
   933     0994                     	;# 
   934     0995                     	;# 
   935     0996                     	;# 
   936     0997                     	;# 
   937     0E0F                     	;# 
   938     0E10                     	;# 
   939     0E11                     	;# 
   940     0E12                     	;# 
   941     0E13                     	;# 
   942     0E14                     	;# 
   943     0E15                     	;# 
   944     0E16                     	;# 
   945     0E17                     	;# 
   946     0E18                     	;# 
   947     0E19                     	;# 
   948     0E1A                     	;# 
   949     0E1B                     	;# 
   950     0E1C                     	;# 
   951     0E1D                     	;# 
   952     0E1E                     	;# 
   953     0E1F                     	;# 
   954     0E20                     	;# 
   955     0E21                     	;# 
   956     0E22                     	;# 
   957     0E23                     	;# 
   958     0E24                     	;# 
   959     0E25                     	;# 
   960     0E26                     	;# 
   961     0E27                     	;# 
   962     0E28                     	;# 
   963     0E29                     	;# 
   964     0E2A                     	;# 
   965     0E2B                     	;# 
   966     0E2C                     	;# 
   967     0E2D                     	;# 
   968     0E2E                     	;# 
   969     0E2F                     	;# 
   970     0E30                     	;# 
   971     0E31                     	;# 
   972     0E32                     	;# 
   973     0E33                     	;# 
   974     0E34                     	;# 
   975     0E35                     	;# 
   976     0E36                     	;# 
   977     0E37                     	;# 
   978     0E8F                     	;# 
   979     0E90                     	;# 
   980     0E91                     	;# 
   981     0E92                     	;# 
   982     0E93                     	;# 
   983     0E94                     	;# 
   984     0E95                     	;# 
   985     0E96                     	;# 
   986     0E97                     	;# 
   987     0E9C                     	;# 
   988     0E9D                     	;# 
   989     0E9E                     	;# 
   990     0EA1                     	;# 
   991     0EA2                     	;# 
   992     0EA3                     	;# 
   993     0EA4                     	;# 
   994     0EA5                     	;# 
   995     0EA9                     	;# 
   996     0EAA                     	;# 
   997     0EAB                     	;# 
   998     0EAC                     	;# 
   999     0EB1                     	;# 
  1000     0EB2                     	;# 
  1001     0EB3                     	;# 
  1002     0EB8                     	;# 
  1003     0EB9                     	;# 
  1004     0EBA                     	;# 
  1005     0EBB                     	;# 
  1006     0EBC                     	;# 
  1007     0EBD                     	;# 
  1008     0EBE                     	;# 
  1009     0EC3                     	;# 
  1010     0EC5                     	;# 
  1011     0EC6                     	;# 
  1012     0EC7                     	;# 
  1013     0EC8                     	;# 
  1014     0EC9                     	;# 
  1015     0ECA                     	;# 
  1016     0ECB                     	;# 
  1017     0ECC                     	;# 
  1018     0F10                     	;# 
  1019     0F11                     	;# 
  1020     0F12                     	;# 
  1021     0F13                     	;# 
  1022     0F14                     	;# 
  1023     0F15                     	;# 
  1024     0F16                     	;# 
  1025     0F17                     	;# 
  1026     0F18                     	;# 
  1027     0F19                     	;# 
  1028     0F1A                     	;# 
  1029     0F1B                     	;# 
  1030     0F1C                     	;# 
  1031     0F1D                     	;# 
  1032     0F1E                     	;# 
  1033     0F1F                     	;# 
  1034     0F20                     	;# 
  1035     0F21                     	;# 
  1036     0F22                     	;# 
  1037     0F23                     	;# 
  1038     0F24                     	;# 
  1039     0F25                     	;# 
  1040     0F26                     	;# 
  1041     0F27                     	;# 
  1042     0F38                     	;# 
  1043     0F39                     	;# 
  1044     0F3A                     	;# 
  1045     0F3B                     	;# 
  1046     0F3C                     	;# 
  1047     0F3D                     	;# 
  1048     0F3E                     	;# 
  1049     0F3F                     	;# 
  1050     0F40                     	;# 
  1051     0F41                     	;# 
  1052     0F43                     	;# 
  1053     0F44                     	;# 
  1054     0F45                     	;# 
  1055     0F46                     	;# 
  1056     0F47                     	;# 
  1057     0F48                     	;# 
  1058     0F49                     	;# 
  1059     0F4A                     	;# 
  1060     0F4B                     	;# 
  1061     0F4C                     	;# 
  1062     0F4E                     	;# 
  1063     0F4F                     	;# 
  1064     0F50                     	;# 
  1065     0F51                     	;# 
  1066     0F52                     	;# 
  1067     0F53                     	;# 
  1068     0F54                     	;# 
  1069     0F55                     	;# 
  1070     0F56                     	;# 
  1071     0F57                     	;# 
  1072     0F65                     	;# 
  1073     0F68                     	;# 
  1074     0F69                     	;# 
  1075     0F6A                     	;# 
  1076     0F6B                     	;# 
  1077     0FE4                     	;# 
  1078     0FE5                     	;# 
  1079     0FE6                     	;# 
  1080     0FE7                     	;# 
  1081     0FE8                     	;# 
  1082     0FE9                     	;# 
  1083     0FEA                     	;# 
  1084     0FEB                     	;# 
  1085     0FED                     	;# 
  1086     0FEE                     	;# 
  1087     0FEF                     	;# 
  1088     0000                     	;# 
  1089     0001                     	;# 
  1090     0002                     	;# 
  1091     0003                     	;# 
  1092     0004                     	;# 
  1093     0005                     	;# 
  1094     0006                     	;# 
  1095     0007                     	;# 
  1096     0008                     	;# 
  1097     0009                     	;# 
  1098     000A                     	;# 
  1099     000B                     	;# 
  1100     000C                     	;# 
  1101     000D                     	;# 
  1102     000E                     	;# 
  1103     0010                     	;# 
  1104     0011                     	;# 
  1105     0012                     	;# 
  1106     0013                     	;# 
  1107     0016                     	;# 
  1108     0017                     	;# 
  1109     0018                     	;# 
  1110     001C                     	;# 
  1111     001C                     	;# 
  1112     001D                     	;# 
  1113     001D                     	;# 
  1114     001E                     	;# 
  1115     001F                     	;# 
  1116     008C                     	;# 
  1117     008C                     	;# 
  1118     008D                     	;# 
  1119     008E                     	;# 
  1120     008E                     	;# 
  1121     008F                     	;# 
  1122     0090                     	;# 
  1123     0090                     	;# 
  1124     0091                     	;# 
  1125     0093                     	;# 
  1126     0094                     	;# 
  1127     0095                     	;# 
  1128     0096                     	;# 
  1129     0097                     	;# 
  1130     0098                     	;# 
  1131     0099                     	;# 
  1132     009A                     	;# 
  1133     009B                     	;# 
  1134     009C                     	;# 
  1135     009D                     	;# 
  1136     009E                     	;# 
  1137     010C                     	;# 
  1138     010D                     	;# 
  1139     010E                     	;# 
  1140     010E                     	;# 
  1141     010F                     	;# 
  1142     0110                     	;# 
  1143     0110                     	;# 
  1144     0111                     	;# 
  1145     0112                     	;# 
  1146     0112                     	;# 
  1147     0113                     	;# 
  1148     0114                     	;# 
  1149     0114                     	;# 
  1150     0115                     	;# 
  1151     0116                     	;# 
  1152     0116                     	;# 
  1153     0117                     	;# 
  1154     0119                     	;# 
  1155     0119                     	;# 
  1156     0119                     	;# 
  1157     011A                     	;# 
  1158     011A                     	;# 
  1159     011A                     	;# 
  1160     011B                     	;# 
  1161     011B                     	;# 
  1162     011B                     	;# 
  1163     011B                     	;# 
  1164     011B                     	;# 
  1165     011C                     	;# 
  1166     011C                     	;# 
  1167     011C                     	;# 
  1168     011D                     	;# 
  1169     011D                     	;# 
  1170     011D                     	;# 
  1171     011E                     	;# 
  1172     011E                     	;# 
  1173     011E                     	;# 
  1174     011F                     	;# 
  1175     011F                     	;# 
  1176     011F                     	;# 
  1177     011F                     	;# 
  1178     011F                     	;# 
  1179     018C                     	;# 
  1180     018D                     	;# 
  1181     018E                     	;# 
  1182     018F                     	;# 
  1183     0190                     	;# 
  1184     0191                     	;# 
  1185     0192                     	;# 
  1186     0196                     	;# 
  1187     0197                     	;# 
  1188     0198                     	;# 
  1189     0199                     	;# 
  1190     019A                     	;# 
  1191     019B                     	;# 
  1192     019C                     	;# 
  1193     020C                     	;# 
  1194     020C                     	;# 
  1195     020D                     	;# 
  1196     020E                     	;# 
  1197     020F                     	;# 
  1198     020F                     	;# 
  1199     0210                     	;# 
  1200     0210                     	;# 
  1201     0211                     	;# 
  1202     0211                     	;# 
  1203     0212                     	;# 
  1204     0212                     	;# 
  1205     0213                     	;# 
  1206     0214                     	;# 
  1207     0215                     	;# 
  1208     0215                     	;# 
  1209     0216                     	;# 
  1210     0216                     	;# 
  1211     0217                     	;# 
  1212     0217                     	;# 
  1213     0218                     	;# 
  1214     0218                     	;# 
  1215     0219                     	;# 
  1216     021A                     	;# 
  1217     021B                     	;# 
  1218     021B                     	;# 
  1219     021C                     	;# 
  1220     021C                     	;# 
  1221     021D                     	;# 
  1222     021D                     	;# 
  1223     021E                     	;# 
  1224     021F                     	;# 
  1225     028C                     	;# 
  1226     028C                     	;# 
  1227     028D                     	;# 
  1228     028D                     	;# 
  1229     028E                     	;# 
  1230     028F                     	;# 
  1231     0290                     	;# 
  1232     0290                     	;# 
  1233     0291                     	;# 
  1234     0292                     	;# 
  1235     0292                     	;# 
  1236     0293                     	;# 
  1237     0293                     	;# 
  1238     0294                     	;# 
  1239     0295                     	;# 
  1240     0296                     	;# 
  1241     0296                     	;# 
  1242     0297                     	;# 
  1243     0298                     	;# 
  1244     0298                     	;# 
  1245     0299                     	;# 
  1246     0299                     	;# 
  1247     029A                     	;# 
  1248     029B                     	;# 
  1249     029C                     	;# 
  1250     029C                     	;# 
  1251     029D                     	;# 
  1252     030C                     	;# 
  1253     030C                     	;# 
  1254     030D                     	;# 
  1255     030E                     	;# 
  1256     030F                     	;# 
  1257     0310                     	;# 
  1258     0310                     	;# 
  1259     0311                     	;# 
  1260     0312                     	;# 
  1261     0313                     	;# 
  1262     0314                     	;# 
  1263     0314                     	;# 
  1264     0315                     	;# 
  1265     0316                     	;# 
  1266     0317                     	;# 
  1267     0318                     	;# 
  1268     0318                     	;# 
  1269     0319                     	;# 
  1270     031A                     	;# 
  1271     031B                     	;# 
  1272     031C                     	;# 
  1273     031C                     	;# 
  1274     031D                     	;# 
  1275     031E                     	;# 
  1276     031F                     	;# 
  1277     038C                     	;# 
  1278     038C                     	;# 
  1279     038D                     	;# 
  1280     038E                     	;# 
  1281     0390                     	;# 
  1282     0390                     	;# 
  1283     0391                     	;# 
  1284     0392                     	;# 
  1285     040C                     	;# 
  1286     040D                     	;# 
  1287     040E                     	;# 
  1288     040F                     	;# 
  1289     0410                     	;# 
  1290     0411                     	;# 
  1291     0416                     	;# 
  1292     0416                     	;# 
  1293     0417                     	;# 
  1294     0418                     	;# 
  1295     0418                     	;# 
  1296     0419                     	;# 
  1297     041A                     	;# 
  1298     041A                     	;# 
  1299     041B                     	;# 
  1300     041C                     	;# 
  1301     041C                     	;# 
  1302     041D                     	;# 
  1303     041E                     	;# 
  1304     041F                     	;# 
  1305     048C                     	;# 
  1306     048C                     	;# 
  1307     048D                     	;# 
  1308     048E                     	;# 
  1309     048F                     	;# 
  1310     048F                     	;# 
  1311     0490                     	;# 
  1312     0491                     	;# 
  1313     0492                     	;# 
  1314     0492                     	;# 
  1315     0493                     	;# 
  1316     0494                     	;# 
  1317     0495                     	;# 
  1318     0495                     	;# 
  1319     0496                     	;# 
  1320     0497                     	;# 
  1321     0498                     	;# 
  1322     0499                     	;# 
  1323     049A                     	;# 
  1324     049B                     	;# 
  1325     049C                     	;# 
  1326     049D                     	;# 
  1327     050C                     	;# 
  1328     050C                     	;# 
  1329     050D                     	;# 
  1330     050E                     	;# 
  1331     050F                     	;# 
  1332     050F                     	;# 
  1333     0510                     	;# 
  1334     0511                     	;# 
  1335     0512                     	;# 
  1336     0512                     	;# 
  1337     0513                     	;# 
  1338     0514                     	;# 
  1339     0515                     	;# 
  1340     0515                     	;# 
  1341     0516                     	;# 
  1342     0517                     	;# 
  1343     0518                     	;# 
  1344     0519                     	;# 
  1345     051A                     	;# 
  1346     051B                     	;# 
  1347     051C                     	;# 
  1348     051D                     	;# 
  1349     058C                     	;# 
  1350     058C                     	;# 
  1351     058D                     	;# 
  1352     058E                     	;# 
  1353     058F                     	;# 
  1354     058F                     	;# 
  1355     0590                     	;# 
  1356     0591                     	;# 
  1357     0592                     	;# 
  1358     0593                     	;# 
  1359     060C                     	;# 
  1360     060D                     	;# 
  1361     060E                     	;# 
  1362     060F                     	;# 
  1363     0610                     	;# 
  1364     0611                     	;# 
  1365     0612                     	;# 
  1366     0613                     	;# 
  1367     0614                     	;# 
  1368     0616                     	;# 
  1369     0617                     	;# 
  1370     0618                     	;# 
  1371     0619                     	;# 
  1372     061A                     	;# 
  1373     061B                     	;# 
  1374     061C                     	;# 
  1375     061D                     	;# 
  1376     061E                     	;# 
  1377     068C                     	;# 
  1378     068D                     	;# 
  1379     068E                     	;# 
  1380     068F                     	;# 
  1381     0690                     	;# 
  1382     0691                     	;# 
  1383     0692                     	;# 
  1384     0693                     	;# 
  1385     0694                     	;# 
  1386     070C                     	;# 
  1387     070D                     	;# 
  1388     070E                     	;# 
  1389     070F                     	;# 
  1390     0710                     	;# 
  1391     0711                     	;# 
  1392     0712                     	;# 
  1393     0713                     	;# 
  1394     0714                     	;# 
  1395     0716                     	;# 
  1396     0717                     	;# 
  1397     0718                     	;# 
  1398     0719                     	;# 
  1399     071A                     	;# 
  1400     071B                     	;# 
  1401     071C                     	;# 
  1402     071D                     	;# 
  1403     071E                     	;# 
  1404     0796                     	;# 
  1405     0797                     	;# 
  1406     0798                     	;# 
  1407     0799                     	;# 
  1408     079A                     	;# 
  1409     079B                     	;# 
  1410     080C                     	;# 
  1411     080D                     	;# 
  1412     080E                     	;# 
  1413     080F                     	;# 
  1414     0810                     	;# 
  1415     0811                     	;# 
  1416     0812                     	;# 
  1417     0813                     	;# 
  1418     0814                     	;# 
  1419     081A                     	;# 
  1420     081B                     	;# 
  1421     081C                     	;# 
  1422     081D                     	;# 
  1423     081E                     	;# 
  1424     081F                     	;# 
  1425     088C                     	;# 
  1426     088D                     	;# 
  1427     088E                     	;# 
  1428     088F                     	;# 
  1429     0890                     	;# 
  1430     0891                     	;# 
  1431     0892                     	;# 
  1432     0893                     	;# 
  1433     0895                     	;# 
  1434     0896                     	;# 
  1435     0897                     	;# 
  1436     0898                     	;# 
  1437     0899                     	;# 
  1438     089A                     	;# 
  1439     089B                     	;# 
  1440     090C                     	;# 
  1441     090E                     	;# 
  1442     090F                     	;# 
  1443     091F                     	;# 
  1444     091F                     	;# 
  1445     098F                     	;# 
  1446     098F                     	;# 
  1447     0990                     	;# 
  1448     0991                     	;# 
  1449     0992                     	;# 
  1450     0993                     	;# 
  1451     0994                     	;# 
  1452     0995                     	;# 
  1453     0996                     	;# 
  1454     0997                     	;# 
  1455     0E0F                     	;# 
  1456     0E10                     	;# 
  1457     0E11                     	;# 
  1458     0E12                     	;# 
  1459     0E13                     	;# 
  1460     0E14                     	;# 
  1461     0E15                     	;# 
  1462     0E16                     	;# 
  1463     0E17                     	;# 
  1464     0E18                     	;# 
  1465     0E19                     	;# 
  1466     0E1A                     	;# 
  1467     0E1B                     	;# 
  1468     0E1C                     	;# 
  1469     0E1D                     	;# 
  1470     0E1E                     	;# 
  1471     0E1F                     	;# 
  1472     0E20                     	;# 
  1473     0E21                     	;# 
  1474     0E22                     	;# 
  1475     0E23                     	;# 
  1476     0E24                     	;# 
  1477     0E25                     	;# 
  1478     0E26                     	;# 
  1479     0E27                     	;# 
  1480     0E28                     	;# 
  1481     0E29                     	;# 
  1482     0E2A                     	;# 
  1483     0E2B                     	;# 
  1484     0E2C                     	;# 
  1485     0E2D                     	;# 
  1486     0E2E                     	;# 
  1487     0E2F                     	;# 
  1488     0E30                     	;# 
  1489     0E31                     	;# 
  1490     0E32                     	;# 
  1491     0E33                     	;# 
  1492     0E34                     	;# 
  1493     0E35                     	;# 
  1494     0E36                     	;# 
  1495     0E37                     	;# 
  1496     0E8F                     	;# 
  1497     0E90                     	;# 
  1498     0E91                     	;# 
  1499     0E92                     	;# 
  1500     0E93                     	;# 
  1501     0E94                     	;# 
  1502     0E95                     	;# 
  1503     0E96                     	;# 
  1504     0E97                     	;# 
  1505     0E9C                     	;# 
  1506     0E9D                     	;# 
  1507     0E9E                     	;# 
  1508     0EA1                     	;# 
  1509     0EA2                     	;# 
  1510     0EA3                     	;# 
  1511     0EA4                     	;# 
  1512     0EA5                     	;# 
  1513     0EA9                     	;# 
  1514     0EAA                     	;# 
  1515     0EAB                     	;# 
  1516     0EAC                     	;# 
  1517     0EB1                     	;# 
  1518     0EB2                     	;# 
  1519     0EB3                     	;# 
  1520     0EB8                     	;# 
  1521     0EB9                     	;# 
  1522     0EBA                     	;# 
  1523     0EBB                     	;# 
  1524     0EBC                     	;# 
  1525     0EBD                     	;# 
  1526     0EBE                     	;# 
  1527     0EC3                     	;# 
  1528     0EC5                     	;# 
  1529     0EC6                     	;# 
  1530     0EC7                     	;# 
  1531     0EC8                     	;# 
  1532     0EC9                     	;# 
  1533     0ECA                     	;# 
  1534     0ECB                     	;# 
  1535     0ECC                     	;# 
  1536     0F10                     	;# 
  1537     0F11                     	;# 
  1538     0F12                     	;# 
  1539     0F13                     	;# 
  1540     0F14                     	;# 
  1541     0F15                     	;# 
  1542     0F16                     	;# 
  1543     0F17                     	;# 
  1544     0F18                     	;# 
  1545     0F19                     	;# 
  1546     0F1A                     	;# 
  1547     0F1B                     	;# 
  1548     0F1C                     	;# 
  1549     0F1D                     	;# 
  1550     0F1E                     	;# 
  1551     0F1F                     	;# 
  1552     0F20                     	;# 
  1553     0F21                     	;# 
  1554     0F22                     	;# 
  1555     0F23                     	;# 
  1556     0F24                     	;# 
  1557     0F25                     	;# 
  1558     0F26                     	;# 
  1559     0F27                     	;# 
  1560     0F38                     	;# 
  1561     0F39                     	;# 
  1562     0F3A                     	;# 
  1563     0F3B                     	;# 
  1564     0F3C                     	;# 
  1565     0F3D                     	;# 
  1566     0F3E                     	;# 
  1567     0F3F                     	;# 
  1568     0F40                     	;# 
  1569     0F41                     	;# 
  1570     0F43                     	;# 
  1571     0F44                     	;# 
  1572     0F45                     	;# 
  1573     0F46                     	;# 
  1574     0F47                     	;# 
  1575     0F48                     	;# 
  1576     0F49                     	;# 
  1577     0F4A                     	;# 
  1578     0F4B                     	;# 
  1579     0F4C                     	;# 
  1580     0F4E                     	;# 
  1581     0F4F                     	;# 
  1582     0F50                     	;# 
  1583     0F51                     	;# 
  1584     0F52                     	;# 
  1585     0F53                     	;# 
  1586     0F54                     	;# 
  1587     0F55                     	;# 
  1588     0F56                     	;# 
  1589     0F57                     	;# 
  1590     0F65                     	;# 
  1591     0F68                     	;# 
  1592     0F69                     	;# 
  1593     0F6A                     	;# 
  1594     0F6B                     	;# 
  1595     0FE4                     	;# 
  1596     0FE5                     	;# 
  1597     0FE6                     	;# 
  1598     0FE7                     	;# 
  1599     0FE8                     	;# 
  1600     0FE9                     	;# 
  1601     0FEA                     	;# 
  1602     0FEB                     	;# 
  1603     0FED                     	;# 
  1604     0FEE                     	;# 
  1605     0FEF                     	;# 
  1606     0000                     	;# 
  1607     0001                     	;# 
  1608     0002                     	;# 
  1609     0003                     	;# 
  1610     0004                     	;# 
  1611     0005                     	;# 
  1612     0006                     	;# 
  1613     0007                     	;# 
  1614     0008                     	;# 
  1615     0009                     	;# 
  1616     000A                     	;# 
  1617     000B                     	;# 
  1618     000C                     	;# 
  1619     000D                     	;# 
  1620     000E                     	;# 
  1621     0010                     	;# 
  1622     0011                     	;# 
  1623     0012                     	;# 
  1624     0013                     	;# 
  1625     0016                     	;# 
  1626     0017                     	;# 
  1627     0018                     	;# 
  1628     001C                     	;# 
  1629     001C                     	;# 
  1630     001D                     	;# 
  1631     001D                     	;# 
  1632     001E                     	;# 
  1633     001F                     	;# 
  1634     008C                     	;# 
  1635     008C                     	;# 
  1636     008D                     	;# 
  1637     008E                     	;# 
  1638     008E                     	;# 
  1639     008F                     	;# 
  1640     0090                     	;# 
  1641     0090                     	;# 
  1642     0091                     	;# 
  1643     0093                     	;# 
  1644     0094                     	;# 
  1645     0095                     	;# 
  1646     0096                     	;# 
  1647     0097                     	;# 
  1648     0098                     	;# 
  1649     0099                     	;# 
  1650     009A                     	;# 
  1651     009B                     	;# 
  1652     009C                     	;# 
  1653     009D                     	;# 
  1654     009E                     	;# 
  1655     010C                     	;# 
  1656     010D                     	;# 
  1657     010E                     	;# 
  1658     010E                     	;# 
  1659     010F                     	;# 
  1660     0110                     	;# 
  1661     0110                     	;# 
  1662     0111                     	;# 
  1663     0112                     	;# 
  1664     0112                     	;# 
  1665     0113                     	;# 
  1666     0114                     	;# 
  1667     0114                     	;# 
  1668     0115                     	;# 
  1669     0116                     	;# 
  1670     0116                     	;# 
  1671     0117                     	;# 
  1672     0119                     	;# 
  1673     0119                     	;# 
  1674     0119                     	;# 
  1675     011A                     	;# 
  1676     011A                     	;# 
  1677     011A                     	;# 
  1678     011B                     	;# 
  1679     011B                     	;# 
  1680     011B                     	;# 
  1681     011B                     	;# 
  1682     011B                     	;# 
  1683     011C                     	;# 
  1684     011C                     	;# 
  1685     011C                     	;# 
  1686     011D                     	;# 
  1687     011D                     	;# 
  1688     011D                     	;# 
  1689     011E                     	;# 
  1690     011E                     	;# 
  1691     011E                     	;# 
  1692     011F                     	;# 
  1693     011F                     	;# 
  1694     011F                     	;# 
  1695     011F                     	;# 
  1696     011F                     	;# 
  1697     018C                     	;# 
  1698     018D                     	;# 
  1699     018E                     	;# 
  1700     018F                     	;# 
  1701     0190                     	;# 
  1702     0191                     	;# 
  1703     0192                     	;# 
  1704     0196                     	;# 
  1705     0197                     	;# 
  1706     0198                     	;# 
  1707     0199                     	;# 
  1708     019A                     	;# 
  1709     019B                     	;# 
  1710     019C                     	;# 
  1711     020C                     	;# 
  1712     020C                     	;# 
  1713     020D                     	;# 
  1714     020E                     	;# 
  1715     020F                     	;# 
  1716     020F                     	;# 
  1717     0210                     	;# 
  1718     0210                     	;# 
  1719     0211                     	;# 
  1720     0211                     	;# 
  1721     0212                     	;# 
  1722     0212                     	;# 
  1723     0213                     	;# 
  1724     0214                     	;# 
  1725     0215                     	;# 
  1726     0215                     	;# 
  1727     0216                     	;# 
  1728     0216                     	;# 
  1729     0217                     	;# 
  1730     0217                     	;# 
  1731     0218                     	;# 
  1732     0218                     	;# 
  1733     0219                     	;# 
  1734     021A                     	;# 
  1735     021B                     	;# 
  1736     021B                     	;# 
  1737     021C                     	;# 
  1738     021C                     	;# 
  1739     021D                     	;# 
  1740     021D                     	;# 
  1741     021E                     	;# 
  1742     021F                     	;# 
  1743     028C                     	;# 
  1744     028C                     	;# 
  1745     028D                     	;# 
  1746     028D                     	;# 
  1747     028E                     	;# 
  1748     028F                     	;# 
  1749     0290                     	;# 
  1750     0290                     	;# 
  1751     0291                     	;# 
  1752     0292                     	;# 
  1753     0292                     	;# 
  1754     0293                     	;# 
  1755     0293                     	;# 
  1756     0294                     	;# 
  1757     0295                     	;# 
  1758     0296                     	;# 
  1759     0296                     	;# 
  1760     0297                     	;# 
  1761     0298                     	;# 
  1762     0298                     	;# 
  1763     0299                     	;# 
  1764     0299                     	;# 
  1765     029A                     	;# 
  1766     029B                     	;# 
  1767     029C                     	;# 
  1768     029C                     	;# 
  1769     029D                     	;# 
  1770     030C                     	;# 
  1771     030C                     	;# 
  1772     030D                     	;# 
  1773     030E                     	;# 
  1774     030F                     	;# 
  1775     0310                     	;# 
  1776     0310                     	;# 
  1777     0311                     	;# 
  1778     0312                     	;# 
  1779     0313                     	;# 
  1780     0314                     	;# 
  1781     0314                     	;# 
  1782     0315                     	;# 
  1783     0316                     	;# 
  1784     0317                     	;# 
  1785     0318                     	;# 
  1786     0318                     	;# 
  1787     0319                     	;# 
  1788     031A                     	;# 
  1789     031B                     	;# 
  1790     031C                     	;# 
  1791     031C                     	;# 
  1792     031D                     	;# 
  1793     031E                     	;# 
  1794     031F                     	;# 
  1795     038C                     	;# 
  1796     038C                     	;# 
  1797     038D                     	;# 
  1798     038E                     	;# 
  1799     0390                     	;# 
  1800     0390                     	;# 
  1801     0391                     	;# 
  1802     0392                     	;# 
  1803     040C                     	;# 
  1804     040D                     	;# 
  1805     040E                     	;# 
  1806     040F                     	;# 
  1807     0410                     	;# 
  1808     0411                     	;# 
  1809     0416                     	;# 
  1810     0416                     	;# 
  1811     0417                     	;# 
  1812     0418                     	;# 
  1813     0418                     	;# 
  1814     0419                     	;# 
  1815     041A                     	;# 
  1816     041A                     	;# 
  1817     041B                     	;# 
  1818     041C                     	;# 
  1819     041C                     	;# 
  1820     041D                     	;# 
  1821     041E                     	;# 
  1822     041F                     	;# 
  1823     048C                     	;# 
  1824     048C                     	;# 
  1825     048D                     	;# 
  1826     048E                     	;# 
  1827     048F                     	;# 
  1828     048F                     	;# 
  1829     0490                     	;# 
  1830     0491                     	;# 
  1831     0492                     	;# 
  1832     0492                     	;# 
  1833     0493                     	;# 
  1834     0494                     	;# 
  1835     0495                     	;# 
  1836     0495                     	;# 
  1837     0496                     	;# 
  1838     0497                     	;# 
  1839     0498                     	;# 
  1840     0499                     	;# 
  1841     049A                     	;# 
  1842     049B                     	;# 
  1843     049C                     	;# 
  1844     049D                     	;# 
  1845     050C                     	;# 
  1846     050C                     	;# 
  1847     050D                     	;# 
  1848     050E                     	;# 
  1849     050F                     	;# 
  1850     050F                     	;# 
  1851     0510                     	;# 
  1852     0511                     	;# 
  1853     0512                     	;# 
  1854     0512                     	;# 
  1855     0513                     	;# 
  1856     0514                     	;# 
  1857     0515                     	;# 
  1858     0515                     	;# 
  1859     0516                     	;# 
  1860     0517                     	;# 
  1861     0518                     	;# 
  1862     0519                     	;# 
  1863     051A                     	;# 
  1864     051B                     	;# 
  1865     051C                     	;# 
  1866     051D                     	;# 
  1867     058C                     	;# 
  1868     058C                     	;# 
  1869     058D                     	;# 
  1870     058E                     	;# 
  1871     058F                     	;# 
  1872     058F                     	;# 
  1873     0590                     	;# 
  1874     0591                     	;# 
  1875     0592                     	;# 
  1876     0593                     	;# 
  1877     060C                     	;# 
  1878     060D                     	;# 
  1879     060E                     	;# 
  1880     060F                     	;# 
  1881     0610                     	;# 
  1882     0611                     	;# 
  1883     0612                     	;# 
  1884     0613                     	;# 
  1885     0614                     	;# 
  1886     0616                     	;# 
  1887     0617                     	;# 
  1888     0618                     	;# 
  1889     0619                     	;# 
  1890     061A                     	;# 
  1891     061B                     	;# 
  1892     061C                     	;# 
  1893     061D                     	;# 
  1894     061E                     	;# 
  1895     068C                     	;# 
  1896     068D                     	;# 
  1897     068E                     	;# 
  1898     068F                     	;# 
  1899     0690                     	;# 
  1900     0691                     	;# 
  1901     0692                     	;# 
  1902     0693                     	;# 
  1903     0694                     	;# 
  1904     070C                     	;# 
  1905     070D                     	;# 
  1906     070E                     	;# 
  1907     070F                     	;# 
  1908     0710                     	;# 
  1909     0711                     	;# 
  1910     0712                     	;# 
  1911     0713                     	;# 
  1912     0714                     	;# 
  1913     0716                     	;# 
  1914     0717                     	;# 
  1915     0718                     	;# 
  1916     0719                     	;# 
  1917     071A                     	;# 
  1918     071B                     	;# 
  1919     071C                     	;# 
  1920     071D                     	;# 
  1921     071E                     	;# 
  1922     0796                     	;# 
  1923     0797                     	;# 
  1924     0798                     	;# 
  1925     0799                     	;# 
  1926     079A                     	;# 
  1927     079B                     	;# 
  1928     080C                     	;# 
  1929     080D                     	;# 
  1930     080E                     	;# 
  1931     080F                     	;# 
  1932     0810                     	;# 
  1933     0811                     	;# 
  1934     0812                     	;# 
  1935     0813                     	;# 
  1936     0814                     	;# 
  1937     081A                     	;# 
  1938     081B                     	;# 
  1939     081C                     	;# 
  1940     081D                     	;# 
  1941     081E                     	;# 
  1942     081F                     	;# 
  1943     088C                     	;# 
  1944     088D                     	;# 
  1945     088E                     	;# 
  1946     088F                     	;# 
  1947     0890                     	;# 
  1948     0891                     	;# 
  1949     0892                     	;# 
  1950     0893                     	;# 
  1951     0895                     	;# 
  1952     0896                     	;# 
  1953     0897                     	;# 
  1954     0898                     	;# 
  1955     0899                     	;# 
  1956     089A                     	;# 
  1957     089B                     	;# 
  1958     090C                     	;# 
  1959     090E                     	;# 
  1960     090F                     	;# 
  1961     091F                     	;# 
  1962     091F                     	;# 
  1963     098F                     	;# 
  1964     098F                     	;# 
  1965     0990                     	;# 
  1966     0991                     	;# 
  1967     0992                     	;# 
  1968     0993                     	;# 
  1969     0994                     	;# 
  1970     0995                     	;# 
  1971     0996                     	;# 
  1972     0997                     	;# 
  1973     0E0F                     	;# 
  1974     0E10                     	;# 
  1975     0E11                     	;# 
  1976     0E12                     	;# 
  1977     0E13                     	;# 
  1978     0E14                     	;# 
  1979     0E15                     	;# 
  1980     0E16                     	;# 
  1981     0E17                     	;# 
  1982     0E18                     	;# 
  1983     0E19                     	;# 
  1984     0E1A                     	;# 
  1985     0E1B                     	;# 
  1986     0E1C                     	;# 
  1987     0E1D                     	;# 
  1988     0E1E                     	;# 
  1989     0E1F                     	;# 
  1990     0E20                     	;# 
  1991     0E21                     	;# 
  1992     0E22                     	;# 
  1993     0E23                     	;# 
  1994     0E24                     	;# 
  1995     0E25                     	;# 
  1996     0E26                     	;# 
  1997     0E27                     	;# 
  1998     0E28                     	;# 
  1999     0E29                     	;# 
  2000     0E2A                     	;# 
  2001     0E2B                     	;# 
  2002     0E2C                     	;# 
  2003     0E2D                     	;# 
  2004     0E2E                     	;# 
  2005     0E2F                     	;# 
  2006     0E30                     	;# 
  2007     0E31                     	;# 
  2008     0E32                     	;# 
  2009     0E33                     	;# 
  2010     0E34                     	;# 
  2011     0E35                     	;# 
  2012     0E36                     	;# 
  2013     0E37                     	;# 
  2014     0E8F                     	;# 
  2015     0E90                     	;# 
  2016     0E91                     	;# 
  2017     0E92                     	;# 
  2018     0E93                     	;# 
  2019     0E94                     	;# 
  2020     0E95                     	;# 
  2021     0E96                     	;# 
  2022     0E97                     	;# 
  2023     0E9C                     	;# 
  2024     0E9D                     	;# 
  2025     0E9E                     	;# 
  2026     0EA1                     	;# 
  2027     0EA2                     	;# 
  2028     0EA3                     	;# 
  2029     0EA4                     	;# 
  2030     0EA5                     	;# 
  2031     0EA9                     	;# 
  2032     0EAA                     	;# 
  2033     0EAB                     	;# 
  2034     0EAC                     	;# 
  2035     0EB1                     	;# 
  2036     0EB2                     	;# 
  2037     0EB3                     	;# 
  2038     0EB8                     	;# 
  2039     0EB9                     	;# 
  2040     0EBA                     	;# 
  2041     0EBB                     	;# 
  2042     0EBC                     	;# 
  2043     0EBD                     	;# 
  2044     0EBE                     	;# 
  2045     0EC3                     	;# 
  2046     0EC5                     	;# 
  2047     0EC6                     	;# 
  2048     0EC7                     	;# 
  2049     0EC8                     	;# 
  2050     0EC9                     	;# 
  2051     0ECA                     	;# 
  2052     0ECB                     	;# 
  2053     0ECC                     	;# 
  2054     0F10                     	;# 
  2055     0F11                     	;# 
  2056     0F12                     	;# 
  2057     0F13                     	;# 
  2058     0F14                     	;# 
  2059     0F15                     	;# 
  2060     0F16                     	;# 
  2061     0F17                     	;# 
  2062     0F18                     	;# 
  2063     0F19                     	;# 
  2064     0F1A                     	;# 
  2065     0F1B                     	;# 
  2066     0F1C                     	;# 
  2067     0F1D                     	;# 
  2068     0F1E                     	;# 
  2069     0F1F                     	;# 
  2070     0F20                     	;# 
  2071     0F21                     	;# 
  2072     0F22                     	;# 
  2073     0F23                     	;# 
  2074     0F24                     	;# 
  2075     0F25                     	;# 
  2076     0F26                     	;# 
  2077     0F27                     	;# 
  2078     0F38                     	;# 
  2079     0F39                     	;# 
  2080     0F3A                     	;# 
  2081     0F3B                     	;# 
  2082     0F3C                     	;# 
  2083     0F3D                     	;# 
  2084     0F3E                     	;# 
  2085     0F3F                     	;# 
  2086     0F40                     	;# 
  2087     0F41                     	;# 
  2088     0F43                     	;# 
  2089     0F44                     	;# 
  2090     0F45                     	;# 
  2091     0F46                     	;# 
  2092     0F47                     	;# 
  2093     0F48                     	;# 
  2094     0F49                     	;# 
  2095     0F4A                     	;# 
  2096     0F4B                     	;# 
  2097     0F4C                     	;# 
  2098     0F4E                     	;# 
  2099     0F4F                     	;# 
  2100     0F50                     	;# 
  2101     0F51                     	;# 
  2102     0F52                     	;# 
  2103     0F53                     	;# 
  2104     0F54                     	;# 
  2105     0F55                     	;# 
  2106     0F56                     	;# 
  2107     0F57                     	;# 
  2108     0F65                     	;# 
  2109     0F68                     	;# 
  2110     0F69                     	;# 
  2111     0F6A                     	;# 
  2112     0F6B                     	;# 
  2113     0FE4                     	;# 
  2114     0FE5                     	;# 
  2115     0FE6                     	;# 
  2116     0FE7                     	;# 
  2117     0FE8                     	;# 
  2118     0FE9                     	;# 
  2119     0FEA                     	;# 
  2120     0FEB                     	;# 
  2121     0FED                     	;# 
  2122     0FEE                     	;# 
  2123     0FEF                     	;# 
  2124     0000                     	;# 
  2125     0001                     	;# 
  2126     0002                     	;# 
  2127     0003                     	;# 
  2128     0004                     	;# 
  2129     0005                     	;# 
  2130     0006                     	;# 
  2131     0007                     	;# 
  2132     0008                     	;# 
  2133     0009                     	;# 
  2134     000A                     	;# 
  2135     000B                     	;# 
  2136     000C                     	;# 
  2137     000D                     	;# 
  2138     000E                     	;# 
  2139     0010                     	;# 
  2140     0011                     	;# 
  2141     0012                     	;# 
  2142     0013                     	;# 
  2143     0016                     	;# 
  2144     0017                     	;# 
  2145     0018                     	;# 
  2146     001C                     	;# 
  2147     001C                     	;# 
  2148     001D                     	;# 
  2149     001D                     	;# 
  2150     001E                     	;# 
  2151     001F                     	;# 
  2152     008C                     	;# 
  2153     008C                     	;# 
  2154     008D                     	;# 
  2155     008E                     	;# 
  2156     008E                     	;# 
  2157     008F                     	;# 
  2158     0090                     	;# 
  2159     0090                     	;# 
  2160     0091                     	;# 
  2161     0093                     	;# 
  2162     0094                     	;# 
  2163     0095                     	;# 
  2164     0096                     	;# 
  2165     0097                     	;# 
  2166     0098                     	;# 
  2167     0099                     	;# 
  2168     009A                     	;# 
  2169     009B                     	;# 
  2170     009C                     	;# 
  2171     009D                     	;# 
  2172     009E                     	;# 
  2173     010C                     	;# 
  2174     010D                     	;# 
  2175     010E                     	;# 
  2176     010E                     	;# 
  2177     010F                     	;# 
  2178     0110                     	;# 
  2179     0110                     	;# 
  2180     0111                     	;# 
  2181     0112                     	;# 
  2182     0112                     	;# 
  2183     0113                     	;# 
  2184     0114                     	;# 
  2185     0114                     	;# 
  2186     0115                     	;# 
  2187     0116                     	;# 
  2188     0116                     	;# 
  2189     0117                     	;# 
  2190     0119                     	;# 
  2191     0119                     	;# 
  2192     0119                     	;# 
  2193     011A                     	;# 
  2194     011A                     	;# 
  2195     011A                     	;# 
  2196     011B                     	;# 
  2197     011B                     	;# 
  2198     011B                     	;# 
  2199     011B                     	;# 
  2200     011B                     	;# 
  2201     011C                     	;# 
  2202     011C                     	;# 
  2203     011C                     	;# 
  2204     011D                     	;# 
  2205     011D                     	;# 
  2206     011D                     	;# 
  2207     011E                     	;# 
  2208     011E                     	;# 
  2209     011E                     	;# 
  2210     011F                     	;# 
  2211     011F                     	;# 
  2212     011F                     	;# 
  2213     011F                     	;# 
  2214     011F                     	;# 
  2215     018C                     	;# 
  2216     018D                     	;# 
  2217     018E                     	;# 
  2218     018F                     	;# 
  2219     0190                     	;# 
  2220     0191                     	;# 
  2221     0192                     	;# 
  2222     0196                     	;# 
  2223     0197                     	;# 
  2224     0198                     	;# 
  2225     0199                     	;# 
  2226     019A                     	;# 
  2227     019B                     	;# 
  2228     019C                     	;# 
  2229     020C                     	;# 
  2230     020C                     	;# 
  2231     020D                     	;# 
  2232     020E                     	;# 
  2233     020F                     	;# 
  2234     020F                     	;# 
  2235     0210                     	;# 
  2236     0210                     	;# 
  2237     0211                     	;# 
  2238     0211                     	;# 
  2239     0212                     	;# 
  2240     0212                     	;# 
  2241     0213                     	;# 
  2242     0214                     	;# 
  2243     0215                     	;# 
  2244     0215                     	;# 
  2245     0216                     	;# 
  2246     0216                     	;# 
  2247     0217                     	;# 
  2248     0217                     	;# 
  2249     0218                     	;# 
  2250     0218                     	;# 
  2251     0219                     	;# 
  2252     021A                     	;# 
  2253     021B                     	;# 
  2254     021B                     	;# 
  2255     021C                     	;# 
  2256     021C                     	;# 
  2257     021D                     	;# 
  2258     021D                     	;# 
  2259     021E                     	;# 
  2260     021F                     	;# 
  2261     028C                     	;# 
  2262     028C                     	;# 
  2263     028D                     	;# 
  2264     028D                     	;# 
  2265     028E                     	;# 
  2266     028F                     	;# 
  2267     0290                     	;# 
  2268     0290                     	;# 
  2269     0291                     	;# 
  2270     0292                     	;# 
  2271     0292                     	;# 
  2272     0293                     	;# 
  2273     0293                     	;# 
  2274     0294                     	;# 
  2275     0295                     	;# 
  2276     0296                     	;# 
  2277     0296                     	;# 
  2278     0297                     	;# 
  2279     0298                     	;# 
  2280     0298                     	;# 
  2281     0299                     	;# 
  2282     0299                     	;# 
  2283     029A                     	;# 
  2284     029B                     	;# 
  2285     029C                     	;# 
  2286     029C                     	;# 
  2287     029D                     	;# 
  2288     030C                     	;# 
  2289     030C                     	;# 
  2290     030D                     	;# 
  2291     030E                     	;# 
  2292     030F                     	;# 
  2293     0310                     	;# 
  2294     0310                     	;# 
  2295     0311                     	;# 
  2296     0312                     	;# 
  2297     0313                     	;# 
  2298     0314                     	;# 
  2299     0314                     	;# 
  2300     0315                     	;# 
  2301     0316                     	;# 
  2302     0317                     	;# 
  2303     0318                     	;# 
  2304     0318                     	;# 
  2305     0319                     	;# 
  2306     031A                     	;# 
  2307     031B                     	;# 
  2308     031C                     	;# 
  2309     031C                     	;# 
  2310     031D                     	;# 
  2311     031E                     	;# 
  2312     031F                     	;# 
  2313     038C                     	;# 
  2314     038C                     	;# 
  2315     038D                     	;# 
  2316     038E                     	;# 
  2317     0390                     	;# 
  2318     0390                     	;# 
  2319     0391                     	;# 
  2320     0392                     	;# 
  2321     040C                     	;# 
  2322     040D                     	;# 
  2323     040E                     	;# 
  2324     040F                     	;# 
  2325     0410                     	;# 
  2326     0411                     	;# 
  2327     0416                     	;# 
  2328     0416                     	;# 
  2329     0417                     	;# 
  2330     0418                     	;# 
  2331     0418                     	;# 
  2332     0419                     	;# 
  2333     041A                     	;# 
  2334     041A                     	;# 
  2335     041B                     	;# 
  2336     041C                     	;# 
  2337     041C                     	;# 
  2338     041D                     	;# 
  2339     041E                     	;# 
  2340     041F                     	;# 
  2341     048C                     	;# 
  2342     048C                     	;# 
  2343     048D                     	;# 
  2344     048E                     	;# 
  2345     048F                     	;# 
  2346     048F                     	;# 
  2347     0490                     	;# 
  2348     0491                     	;# 
  2349     0492                     	;# 
  2350     0492                     	;# 
  2351     0493                     	;# 
  2352     0494                     	;# 
  2353     0495                     	;# 
  2354     0495                     	;# 
  2355     0496                     	;# 
  2356     0497                     	;# 
  2357     0498                     	;# 
  2358     0499                     	;# 
  2359     049A                     	;# 
  2360     049B                     	;# 
  2361     049C                     	;# 
  2362     049D                     	;# 
  2363     050C                     	;# 
  2364     050C                     	;# 
  2365     050D                     	;# 
  2366     050E                     	;# 
  2367     050F                     	;# 
  2368     050F                     	;# 
  2369     0510                     	;# 
  2370     0511                     	;# 
  2371     0512                     	;# 
  2372     0512                     	;# 
  2373     0513                     	;# 
  2374     0514                     	;# 
  2375     0515                     	;# 
  2376     0515                     	;# 
  2377     0516                     	;# 
  2378     0517                     	;# 
  2379     0518                     	;# 
  2380     0519                     	;# 
  2381     051A                     	;# 
  2382     051B                     	;# 
  2383     051C                     	;# 
  2384     051D                     	;# 
  2385     058C                     	;# 
  2386     058C                     	;# 
  2387     058D                     	;# 
  2388     058E                     	;# 
  2389     058F                     	;# 
  2390     058F                     	;# 
  2391     0590                     	;# 
  2392     0591                     	;# 
  2393     0592                     	;# 
  2394     0593                     	;# 
  2395     060C                     	;# 
  2396     060D                     	;# 
  2397     060E                     	;# 
  2398     060F                     	;# 
  2399     0610                     	;# 
  2400     0611                     	;# 
  2401     0612                     	;# 
  2402     0613                     	;# 
  2403     0614                     	;# 
  2404     0616                     	;# 
  2405     0617                     	;# 
  2406     0618                     	;# 
  2407     0619                     	;# 
  2408     061A                     	;# 
  2409     061B                     	;# 
  2410     061C                     	;# 
  2411     061D                     	;# 
  2412     061E                     	;# 
  2413     068C                     	;# 
  2414     068D                     	;# 
  2415     068E                     	;# 
  2416     068F                     	;# 
  2417     0690                     	;# 
  2418     0691                     	;# 
  2419     0692                     	;# 
  2420     0693                     	;# 
  2421     0694                     	;# 
  2422     070C                     	;# 
  2423     070D                     	;# 
  2424     070E                     	;# 
  2425     070F                     	;# 
  2426     0710                     	;# 
  2427     0711                     	;# 
  2428     0712                     	;# 
  2429     0713                     	;# 
  2430     0714                     	;# 
  2431     0716                     	;# 
  2432     0717                     	;# 
  2433     0718                     	;# 
  2434     0719                     	;# 
  2435     071A                     	;# 
  2436     071B                     	;# 
  2437     071C                     	;# 
  2438     071D                     	;# 
  2439     071E                     	;# 
  2440     0796                     	;# 
  2441     0797                     	;# 
  2442     0798                     	;# 
  2443     0799                     	;# 
  2444     079A                     	;# 
  2445     079B                     	;# 
  2446     080C                     	;# 
  2447     080D                     	;# 
  2448     080E                     	;# 
  2449     080F                     	;# 
  2450     0810                     	;# 
  2451     0811                     	;# 
  2452     0812                     	;# 
  2453     0813                     	;# 
  2454     0814                     	;# 
  2455     081A                     	;# 
  2456     081B                     	;# 
  2457     081C                     	;# 
  2458     081D                     	;# 
  2459     081E                     	;# 
  2460     081F                     	;# 
  2461     088C                     	;# 
  2462     088D                     	;# 
  2463     088E                     	;# 
  2464     088F                     	;# 
  2465     0890                     	;# 
  2466     0891                     	;# 
  2467     0892                     	;# 
  2468     0893                     	;# 
  2469     0895                     	;# 
  2470     0896                     	;# 
  2471     0897                     	;# 
  2472     0898                     	;# 
  2473     0899                     	;# 
  2474     089A                     	;# 
  2475     089B                     	;# 
  2476     090C                     	;# 
  2477     090E                     	;# 
  2478     090F                     	;# 
  2479     091F                     	;# 
  2480     091F                     	;# 
  2481     098F                     	;# 
  2482     098F                     	;# 
  2483     0990                     	;# 
  2484     0991                     	;# 
  2485     0992                     	;# 
  2486     0993                     	;# 
  2487     0994                     	;# 
  2488     0995                     	;# 
  2489     0996                     	;# 
  2490     0997                     	;# 
  2491     0E0F                     	;# 
  2492     0E10                     	;# 
  2493     0E11                     	;# 
  2494     0E12                     	;# 
  2495     0E13                     	;# 
  2496     0E14                     	;# 
  2497     0E15                     	;# 
  2498     0E16                     	;# 
  2499     0E17                     	;# 
  2500     0E18                     	;# 
  2501     0E19                     	;# 
  2502     0E1A                     	;# 
  2503     0E1B                     	;# 
  2504     0E1C                     	;# 
  2505     0E1D                     	;# 
  2506     0E1E                     	;# 
  2507     0E1F                     	;# 
  2508     0E20                     	;# 
  2509     0E21                     	;# 
  2510     0E22                     	;# 
  2511     0E23                     	;# 
  2512     0E24                     	;# 
  2513     0E25                     	;# 
  2514     0E26                     	;# 
  2515     0E27                     	;# 
  2516     0E28                     	;# 
  2517     0E29                     	;# 
  2518     0E2A                     	;# 
  2519     0E2B                     	;# 
  2520     0E2C                     	;# 
  2521     0E2D                     	;# 
  2522     0E2E                     	;# 
  2523     0E2F                     	;# 
  2524     0E30                     	;# 
  2525     0E31                     	;# 
  2526     0E32                     	;# 
  2527     0E33                     	;# 
  2528     0E34                     	;# 
  2529     0E35                     	;# 
  2530     0E36                     	;# 
  2531     0E37                     	;# 
  2532     0E8F                     	;# 
  2533     0E90                     	;# 
  2534     0E91                     	;# 
  2535     0E92                     	;# 
  2536     0E93                     	;# 
  2537     0E94                     	;# 
  2538     0E95                     	;# 
  2539     0E96                     	;# 
  2540     0E97                     	;# 
  2541     0E9C                     	;# 
  2542     0E9D                     	;# 
  2543     0E9E                     	;# 
  2544     0EA1                     	;# 
  2545     0EA2                     	;# 
  2546     0EA3                     	;# 
  2547     0EA4                     	;# 
  2548     0EA5                     	;# 
  2549     0EA9                     	;# 
  2550     0EAA                     	;# 
  2551     0EAB                     	;# 
  2552     0EAC                     	;# 
  2553     0EB1                     	;# 
  2554     0EB2                     	;# 
  2555     0EB3                     	;# 
  2556     0EB8                     	;# 
  2557     0EB9                     	;# 
  2558     0EBA                     	;# 
  2559     0EBB                     	;# 
  2560     0EBC                     	;# 
  2561     0EBD                     	;# 
  2562     0EBE                     	;# 
  2563     0EC3                     	;# 
  2564     0EC5                     	;# 
  2565     0EC6                     	;# 
  2566     0EC7                     	;# 
  2567     0EC8                     	;# 
  2568     0EC9                     	;# 
  2569     0ECA                     	;# 
  2570     0ECB                     	;# 
  2571     0ECC                     	;# 
  2572     0F10                     	;# 
  2573     0F11                     	;# 
  2574     0F12                     	;# 
  2575     0F13                     	;# 
  2576     0F14                     	;# 
  2577     0F15                     	;# 
  2578     0F16                     	;# 
  2579     0F17                     	;# 
  2580     0F18                     	;# 
  2581     0F19                     	;# 
  2582     0F1A                     	;# 
  2583     0F1B                     	;# 
  2584     0F1C                     	;# 
  2585     0F1D                     	;# 
  2586     0F1E                     	;# 
  2587     0F1F                     	;# 
  2588     0F20                     	;# 
  2589     0F21                     	;# 
  2590     0F22                     	;# 
  2591     0F23                     	;# 
  2592     0F24                     	;# 
  2593     0F25                     	;# 
  2594     0F26                     	;# 
  2595     0F27                     	;# 
  2596     0F38                     	;# 
  2597     0F39                     	;# 
  2598     0F3A                     	;# 
  2599     0F3B                     	;# 
  2600     0F3C                     	;# 
  2601     0F3D                     	;# 
  2602     0F3E                     	;# 
  2603     0F3F                     	;# 
  2604     0F40                     	;# 
  2605     0F41                     	;# 
  2606     0F43                     	;# 
  2607     0F44                     	;# 
  2608     0F45                     	;# 
  2609     0F46                     	;# 
  2610     0F47                     	;# 
  2611     0F48                     	;# 
  2612     0F49                     	;# 
  2613     0F4A                     	;# 
  2614     0F4B                     	;# 
  2615     0F4C                     	;# 
  2616     0F4E                     	;# 
  2617     0F4F                     	;# 
  2618     0F50                     	;# 
  2619     0F51                     	;# 
  2620     0F52                     	;# 
  2621     0F53                     	;# 
  2622     0F54                     	;# 
  2623     0F55                     	;# 
  2624     0F56                     	;# 
  2625     0F57                     	;# 
  2626     0F65                     	;# 
  2627     0F68                     	;# 
  2628     0F69                     	;# 
  2629     0F6A                     	;# 
  2630     0F6B                     	;# 
  2631     0FE4                     	;# 
  2632     0FE5                     	;# 
  2633     0FE6                     	;# 
  2634     0FE7                     	;# 
  2635     0FE8                     	;# 
  2636     0FE9                     	;# 
  2637     0FEA                     	;# 
  2638     0FEB                     	;# 
  2639     0FED                     	;# 
  2640     0FEE                     	;# 
  2641     0FEF                     	;# 
  2642     0000                     	;# 
  2643     0001                     	;# 
  2644     0002                     	;# 
  2645     0003                     	;# 
  2646     0004                     	;# 
  2647     0005                     	;# 
  2648     0006                     	;# 
  2649     0007                     	;# 
  2650     0008                     	;# 
  2651     0009                     	;# 
  2652     000A                     	;# 
  2653     000B                     	;# 
  2654     000C                     	;# 
  2655     000D                     	;# 
  2656     000E                     	;# 
  2657     0010                     	;# 
  2658     0011                     	;# 
  2659     0012                     	;# 
  2660     0013                     	;# 
  2661     0016                     	;# 
  2662     0017                     	;# 
  2663     0018                     	;# 
  2664     001C                     	;# 
  2665     001C                     	;# 
  2666     001D                     	;# 
  2667     001D                     	;# 
  2668     001E                     	;# 
  2669     001F                     	;# 
  2670     008C                     	;# 
  2671     008C                     	;# 
  2672     008D                     	;# 
  2673     008E                     	;# 
  2674     008E                     	;# 
  2675     008F                     	;# 
  2676     0090                     	;# 
  2677     0090                     	;# 
  2678     0091                     	;# 
  2679     0093                     	;# 
  2680     0094                     	;# 
  2681     0095                     	;# 
  2682     0096                     	;# 
  2683     0097                     	;# 
  2684     0098                     	;# 
  2685     0099                     	;# 
  2686     009A                     	;# 
  2687     009B                     	;# 
  2688     009C                     	;# 
  2689     009D                     	;# 
  2690     009E                     	;# 
  2691     010C                     	;# 
  2692     010D                     	;# 
  2693     010E                     	;# 
  2694     010E                     	;# 
  2695     010F                     	;# 
  2696     0110                     	;# 
  2697     0110                     	;# 
  2698     0111                     	;# 
  2699     0112                     	;# 
  2700     0112                     	;# 
  2701     0113                     	;# 
  2702     0114                     	;# 
  2703     0114                     	;# 
  2704     0115                     	;# 
  2705     0116                     	;# 
  2706     0116                     	;# 
  2707     0117                     	;# 
  2708     0119                     	;# 
  2709     0119                     	;# 
  2710     0119                     	;# 
  2711     011A                     	;# 
  2712     011A                     	;# 
  2713     011A                     	;# 
  2714     011B                     	;# 
  2715     011B                     	;# 
  2716     011B                     	;# 
  2717     011B                     	;# 
  2718     011B                     	;# 
  2719     011C                     	;# 
  2720     011C                     	;# 
  2721     011C                     	;# 
  2722     011D                     	;# 
  2723     011D                     	;# 
  2724     011D                     	;# 
  2725     011E                     	;# 
  2726     011E                     	;# 
  2727     011E                     	;# 
  2728     011F                     	;# 
  2729     011F                     	;# 
  2730     011F                     	;# 
  2731     011F                     	;# 
  2732     011F                     	;# 
  2733     018C                     	;# 
  2734     018D                     	;# 
  2735     018E                     	;# 
  2736     018F                     	;# 
  2737     0190                     	;# 
  2738     0191                     	;# 
  2739     0192                     	;# 
  2740     0196                     	;# 
  2741     0197                     	;# 
  2742     0198                     	;# 
  2743     0199                     	;# 
  2744     019A                     	;# 
  2745     019B                     	;# 
  2746     019C                     	;# 
  2747     020C                     	;# 
  2748     020C                     	;# 
  2749     020D                     	;# 
  2750     020E                     	;# 
  2751     020F                     	;# 
  2752     020F                     	;# 
  2753     0210                     	;# 
  2754     0210                     	;# 
  2755     0211                     	;# 
  2756     0211                     	;# 
  2757     0212                     	;# 
  2758     0212                     	;# 
  2759     0213                     	;# 
  2760     0214                     	;# 
  2761     0215                     	;# 
  2762     0215                     	;# 
  2763     0216                     	;# 
  2764     0216                     	;# 
  2765     0217                     	;# 
  2766     0217                     	;# 
  2767     0218                     	;# 
  2768     0218                     	;# 
  2769     0219                     	;# 
  2770     021A                     	;# 
  2771     021B                     	;# 
  2772     021B                     	;# 
  2773     021C                     	;# 
  2774     021C                     	;# 
  2775     021D                     	;# 
  2776     021D                     	;# 
  2777     021E                     	;# 
  2778     021F                     	;# 
  2779     028C                     	;# 
  2780     028C                     	;# 
  2781     028D                     	;# 
  2782     028D                     	;# 
  2783     028E                     	;# 
  2784     028F                     	;# 
  2785     0290                     	;# 
  2786     0290                     	;# 
  2787     0291                     	;# 
  2788     0292                     	;# 
  2789     0292                     	;# 
  2790     0293                     	;# 
  2791     0293                     	;# 
  2792     0294                     	;# 
  2793     0295                     	;# 
  2794     0296                     	;# 
  2795     0296                     	;# 
  2796     0297                     	;# 
  2797     0298                     	;# 
  2798     0298                     	;# 
  2799     0299                     	;# 
  2800     0299                     	;# 
  2801     029A                     	;# 
  2802     029B                     	;# 
  2803     029C                     	;# 
  2804     029C                     	;# 
  2805     029D                     	;# 
  2806     030C                     	;# 
  2807     030C                     	;# 
  2808     030D                     	;# 
  2809     030E                     	;# 
  2810     030F                     	;# 
  2811     0310                     	;# 
  2812     0310                     	;# 
  2813     0311                     	;# 
  2814     0312                     	;# 
  2815     0313                     	;# 
  2816     0314                     	;# 
  2817     0314                     	;# 
  2818     0315                     	;# 
  2819     0316                     	;# 
  2820     0317                     	;# 
  2821     0318                     	;# 
  2822     0318                     	;# 
  2823     0319                     	;# 
  2824     031A                     	;# 
  2825     031B                     	;# 
  2826     031C                     	;# 
  2827     031C                     	;# 
  2828     031D                     	;# 
  2829     031E                     	;# 
  2830     031F                     	;# 
  2831     038C                     	;# 
  2832     038C                     	;# 
  2833     038D                     	;# 
  2834     038E                     	;# 
  2835     0390                     	;# 
  2836     0390                     	;# 
  2837     0391                     	;# 
  2838     0392                     	;# 
  2839     040C                     	;# 
  2840     040D                     	;# 
  2841     040E                     	;# 
  2842     040F                     	;# 
  2843     0410                     	;# 
  2844     0411                     	;# 
  2845     0416                     	;# 
  2846     0416                     	;# 
  2847     0417                     	;# 
  2848     0418                     	;# 
  2849     0418                     	;# 
  2850     0419                     	;# 
  2851     041A                     	;# 
  2852     041A                     	;# 
  2853     041B                     	;# 
  2854     041C                     	;# 
  2855     041C                     	;# 
  2856     041D                     	;# 
  2857     041E                     	;# 
  2858     041F                     	;# 
  2859     048C                     	;# 
  2860     048C                     	;# 
  2861     048D                     	;# 
  2862     048E                     	;# 
  2863     048F                     	;# 
  2864     048F                     	;# 
  2865     0490                     	;# 
  2866     0491                     	;# 
  2867     0492                     	;# 
  2868     0492                     	;# 
  2869     0493                     	;# 
  2870     0494                     	;# 
  2871     0495                     	;# 
  2872     0495                     	;# 
  2873     0496                     	;# 
  2874     0497                     	;# 
  2875     0498                     	;# 
  2876     0499                     	;# 
  2877     049A                     	;# 
  2878     049B                     	;# 
  2879     049C                     	;# 
  2880     049D                     	;# 
  2881     050C                     	;# 
  2882     050C                     	;# 
  2883     050D                     	;# 
  2884     050E                     	;# 
  2885     050F                     	;# 
  2886     050F                     	;# 
  2887     0510                     	;# 
  2888     0511                     	;# 
  2889     0512                     	;# 
  2890     0512                     	;# 
  2891     0513                     	;# 
  2892     0514                     	;# 
  2893     0515                     	;# 
  2894     0515                     	;# 
  2895     0516                     	;# 
  2896     0517                     	;# 
  2897     0518                     	;# 
  2898     0519                     	;# 
  2899     051A                     	;# 
  2900     051B                     	;# 
  2901     051C                     	;# 
  2902     051D                     	;# 
  2903     058C                     	;# 
  2904     058C                     	;# 
  2905     058D                     	;# 
  2906     058E                     	;# 
  2907     058F                     	;# 
  2908     058F                     	;# 
  2909     0590                     	;# 
  2910     0591                     	;# 
  2911     0592                     	;# 
  2912     0593                     	;# 
  2913     060C                     	;# 
  2914     060D                     	;# 
  2915     060E                     	;# 
  2916     060F                     	;# 
  2917     0610                     	;# 
  2918     0611                     	;# 
  2919     0612                     	;# 
  2920     0613                     	;# 
  2921     0614                     	;# 
  2922     0616                     	;# 
  2923     0617                     	;# 
  2924     0618                     	;# 
  2925     0619                     	;# 
  2926     061A                     	;# 
  2927     061B                     	;# 
  2928     061C                     	;# 
  2929     061D                     	;# 
  2930     061E                     	;# 
  2931     068C                     	;# 
  2932     068D                     	;# 
  2933     068E                     	;# 
  2934     068F                     	;# 
  2935     0690                     	;# 
  2936     0691                     	;# 
  2937     0692                     	;# 
  2938     0693                     	;# 
  2939     0694                     	;# 
  2940     070C                     	;# 
  2941     070D                     	;# 
  2942     070E                     	;# 
  2943     070F                     	;# 
  2944     0710                     	;# 
  2945     0711                     	;# 
  2946     0712                     	;# 
  2947     0713                     	;# 
  2948     0714                     	;# 
  2949     0716                     	;# 
  2950     0717                     	;# 
  2951     0718                     	;# 
  2952     0719                     	;# 
  2953     071A                     	;# 
  2954     071B                     	;# 
  2955     071C                     	;# 
  2956     071D                     	;# 
  2957     071E                     	;# 
  2958     0796                     	;# 
  2959     0797                     	;# 
  2960     0798                     	;# 
  2961     0799                     	;# 
  2962     079A                     	;# 
  2963     079B                     	;# 
  2964     080C                     	;# 
  2965     080D                     	;# 
  2966     080E                     	;# 
  2967     080F                     	;# 
  2968     0810                     	;# 
  2969     0811                     	;# 
  2970     0812                     	;# 
  2971     0813                     	;# 
  2972     0814                     	;# 
  2973     081A                     	;# 
  2974     081B                     	;# 
  2975     081C                     	;# 
  2976     081D                     	;# 
  2977     081E                     	;# 
  2978     081F                     	;# 
  2979     088C                     	;# 
  2980     088D                     	;# 
  2981     088E                     	;# 
  2982     088F                     	;# 
  2983     0890                     	;# 
  2984     0891                     	;# 
  2985     0892                     	;# 
  2986     0893                     	;# 
  2987     0895                     	;# 
  2988     0896                     	;# 
  2989     0897                     	;# 
  2990     0898                     	;# 
  2991     0899                     	;# 
  2992     089A                     	;# 
  2993     089B                     	;# 
  2994     090C                     	;# 
  2995     090E                     	;# 
  2996     090F                     	;# 
  2997     091F                     	;# 
  2998     091F                     	;# 
  2999     098F                     	;# 
  3000     098F                     	;# 
  3001     0990                     	;# 
  3002     0991                     	;# 
  3003     0992                     	;# 
  3004     0993                     	;# 
  3005     0994                     	;# 
  3006     0995                     	;# 
  3007     0996                     	;# 
  3008     0997                     	;# 
  3009     0E0F                     	;# 
  3010     0E10                     	;# 
  3011     0E11                     	;# 
  3012     0E12                     	;# 
  3013     0E13                     	;# 
  3014     0E14                     	;# 
  3015     0E15                     	;# 
  3016     0E16                     	;# 
  3017     0E17                     	;# 
  3018     0E18                     	;# 
  3019     0E19                     	;# 
  3020     0E1A                     	;# 
  3021     0E1B                     	;# 
  3022     0E1C                     	;# 
  3023     0E1D                     	;# 
  3024     0E1E                     	;# 
  3025     0E1F                     	;# 
  3026     0E20                     	;# 
  3027     0E21                     	;# 
  3028     0E22                     	;# 
  3029     0E23                     	;# 
  3030     0E24                     	;# 
  3031     0E25                     	;# 
  3032     0E26                     	;# 
  3033     0E27                     	;# 
  3034     0E28                     	;# 
  3035     0E29                     	;# 
  3036     0E2A                     	;# 
  3037     0E2B                     	;# 
  3038     0E2C                     	;# 
  3039     0E2D                     	;# 
  3040     0E2E                     	;# 
  3041     0E2F                     	;# 
  3042     0E30                     	;# 
  3043     0E31                     	;# 
  3044     0E32                     	;# 
  3045     0E33                     	;# 
  3046     0E34                     	;# 
  3047     0E35                     	;# 
  3048     0E36                     	;# 
  3049     0E37                     	;# 
  3050     0E8F                     	;# 
  3051     0E90                     	;# 
  3052     0E91                     	;# 
  3053     0E92                     	;# 
  3054     0E93                     	;# 
  3055     0E94                     	;# 
  3056     0E95                     	;# 
  3057     0E96                     	;# 
  3058     0E97                     	;# 
  3059     0E9C                     	;# 
  3060     0E9D                     	;# 
  3061     0E9E                     	;# 
  3062     0EA1                     	;# 
  3063     0EA2                     	;# 
  3064     0EA3                     	;# 
  3065     0EA4                     	;# 
  3066     0EA5                     	;# 
  3067     0EA9                     	;# 
  3068     0EAA                     	;# 
  3069     0EAB                     	;# 
  3070     0EAC                     	;# 
  3071     0EB1                     	;# 
  3072     0EB2                     	;# 
  3073     0EB3                     	;# 
  3074     0EB8                     	;# 
  3075     0EB9                     	;# 
  3076     0EBA                     	;# 
  3077     0EBB                     	;# 
  3078     0EBC                     	;# 
  3079     0EBD                     	;# 
  3080     0EBE                     	;# 
  3081     0EC3                     	;# 
  3082     0EC5                     	;# 
  3083     0EC6                     	;# 
  3084     0EC7                     	;# 
  3085     0EC8                     	;# 
  3086     0EC9                     	;# 
  3087     0ECA                     	;# 
  3088     0ECB                     	;# 
  3089     0ECC                     	;# 
  3090     0F10                     	;# 
  3091     0F11                     	;# 
  3092     0F12                     	;# 
  3093     0F13                     	;# 
  3094     0F14                     	;# 
  3095     0F15                     	;# 
  3096     0F16                     	;# 
  3097     0F17                     	;# 
  3098     0F18                     	;# 
  3099     0F19                     	;# 
  3100     0F1A                     	;# 
  3101     0F1B                     	;# 
  3102     0F1C                     	;# 
  3103     0F1D                     	;# 
  3104     0F1E                     	;# 
  3105     0F1F                     	;# 
  3106     0F20                     	;# 
  3107     0F21                     	;# 
  3108     0F22                     	;# 
  3109     0F23                     	;# 
  3110     0F24                     	;# 
  3111     0F25                     	;# 
  3112     0F26                     	;# 
  3113     0F27                     	;# 
  3114     0F38                     	;# 
  3115     0F39                     	;# 
  3116     0F3A                     	;# 
  3117     0F3B                     	;# 
  3118     0F3C                     	;# 
  3119     0F3D                     	;# 
  3120     0F3E                     	;# 
  3121     0F3F                     	;# 
  3122     0F40                     	;# 
  3123     0F41                     	;# 
  3124     0F43                     	;# 
  3125     0F44                     	;# 
  3126     0F45                     	;# 
  3127     0F46                     	;# 
  3128     0F47                     	;# 
  3129     0F48                     	;# 
  3130     0F49                     	;# 
  3131     0F4A                     	;# 
  3132     0F4B                     	;# 
  3133     0F4C                     	;# 
  3134     0F4E                     	;# 
  3135     0F4F                     	;# 
  3136     0F50                     	;# 
  3137     0F51                     	;# 
  3138     0F52                     	;# 
  3139     0F53                     	;# 
  3140     0F54                     	;# 
  3141     0F55                     	;# 
  3142     0F56                     	;# 
  3143     0F57                     	;# 
  3144     0F65                     	;# 
  3145     0F68                     	;# 
  3146     0F69                     	;# 
  3147     0F6A                     	;# 
  3148     0F6B                     	;# 
  3149     0FE4                     	;# 
  3150     0FE5                     	;# 
  3151     0FE6                     	;# 
  3152     0FE7                     	;# 
  3153     0FE8                     	;# 
  3154     0FE9                     	;# 
  3155     0FEA                     	;# 
  3156     0FEB                     	;# 
  3157     0FED                     	;# 
  3158     0FEE                     	;# 
  3159     0FEF                     	;# 
  3160     0013                     _TRISC	set	19
  3161     0012                     _TRISB	set	18
  3162     0011                     _TRISA	set	17
  3163     0018                     _LATC	set	24
  3164     0017                     _LATB	set	23
  3165     0016                     _LATA	set	22
  3166     005F                     _GIE	set	95
  3167     021F                     _CCPTMRS1bits	set	543
  3168     028D                     _PR2	set	653
  3169     028C                     _TMR2	set	652
  3170     028E                     _T2CONbits	set	654
  3171     0291                     _T2RSTbits	set	657
  3172     028F                     _T2HLTbits	set	655
  3173     028C                     _T2TMR	set	652
  3174     028D                     _T2PR	set	653
  3175     0291                     _T2RST	set	657
  3176     028F                     _T2HLT	set	655
  3177     0290                     _T2CLKCON	set	656
  3178     028E                     _T2CON	set	654
  3179     038C                     _PWM6DCL	set	908
  3180     038D                     _PWM6DCH	set	909
  3181     038E                     _PWM6CON	set	910
  3182     0710                     _PIR4bits	set	1808
  3183     0892                     _OSCTUNE	set	2194
  3184     0893                     _OSCFRQ	set	2195
  3185     0891                     _OSCEN	set	2193
  3186     088F                     _OSCCON3	set	2191
  3187     088D                     _OSCCON1	set	2189
  3188     0E9C                     _T2AINPPSbits	set	3740
  3189     0E8F                     _PPSLOCKbits	set	3727
  3190     0E8F                     _PPSLOCK	set	3727
  3191     0F13                     _RA3PPS	set	3859
  3192     0F10                     _RA0PPS	set	3856
  3193     0F12                     _RA2PPS	set	3858
  3194     0F11                     _RA1PPS	set	3857
  3195     0F50                     _ODCONC	set	3920
  3196     0F45                     _ODCONB	set	3909
  3197     0F3A                     _ODCONA	set	3898
  3198     0F4F                     _WPUC	set	3919
  3199     0F39                     _WPUA	set	3897
  3200     0F44                     _WPUB	set	3908
  3201     0F65                     _WPUE	set	3941
  3202     0F38                     _ANSELA	set	3896
  3203     0F43                     _ANSELB	set	3907
  3204     0F4E                     _ANSELC	set	3918
  3205                           
  3206                           	psect	cinit
  3207     07FB                     start_initialization:	
  3208                           ; #config settings
  3209                           
  3210     07FB                     __initialization:
  3211                           
  3212                           ; Clear objects allocated to COMMON
  3213     07FB  01F0               	clrf	__pbssCOMMON& (0+127)
  3214     07FC  01F1               	clrf	(__pbssCOMMON+1)& (0+127)
  3215     07FD                     end_of_initialization:	
  3216                           ;End of C runtime variable initialization code
  3217                           
  3218     07FD                     __end_of__initialization:
  3219     07FD  0020               	movlb	0
  3220     07FE  3187  2F82         	ljmp	_main	;jump to C main() function
  3221                           
  3222                           	psect	bssCOMMON
  3223     0070                     __pbssCOMMON:
  3224     0070                     _TMR2_InterruptHandler:
  3225     0070                     	ds	2
  3226                           
  3227                           	psect	cstackCOMMON
  3228     0072                     __pcstackCOMMON:
  3229     0072                     ?_PIN_MANAGER_Initialize:
  3230     0072                     ??_PIN_MANAGER_Initialize:	
  3231                           ; 1 bytes @ 0x0
  3232                           
  3233     0072                     ?_OSCILLATOR_Initialize:	
  3234                           ; 1 bytes @ 0x0
  3235                           
  3236     0072                     ??_OSCILLATOR_Initialize:	
  3237                           ; 1 bytes @ 0x0
  3238                           
  3239     0072                     ?_PWM6_Initialize:	
  3240                           ; 1 bytes @ 0x0
  3241                           
  3242     0072                     ??_PWM6_Initialize:	
  3243                           ; 1 bytes @ 0x0
  3244                           
  3245     0072                     ?_TMR2_Initialize:	
  3246                           ; 1 bytes @ 0x0
  3247                           
  3248     0072                     ??_TMR2_Initialize:	
  3249                           ; 1 bytes @ 0x0
  3250                           
  3251     0072                     ?_TMR2_Start:	
  3252                           ; 1 bytes @ 0x0
  3253                           
  3254     0072                     ??_TMR2_Start:	
  3255                           ; 1 bytes @ 0x0
  3256                           
  3257     0072                     ?_SYSTEM_Initialize:	
  3258                           ; 1 bytes @ 0x0
  3259                           
  3260     0072                     ?_main:	
  3261                           ; 1 bytes @ 0x0
  3262                           
  3263     0072                     PIN_MANAGER_Initialize@state:	
  3264                           ; 1 bytes @ 0x0
  3265                           
  3266                           
  3267                           ; 1 bytes @ 0x0
  3268     0072                     	ds	1
  3269     0073                     ??_SYSTEM_Initialize:
  3270     0073                     ??_main:	
  3271                           ; 1 bytes @ 0x1
  3272                           
  3273                           
  3274                           	psect	maintext
  3275     0782                     __pmaintext:	
  3276                           ; 1 bytes @ 0x1
  3277 ;;
  3278 ;;Main: autosize = 0, tempsize = 0, incstack = 0, save=0
  3279 ;;
  3280 ;; *************** function _main *****************
  3281 ;; Defined at:
  3282 ;;		line 4 in file "main.c"
  3283 ;; Parameters:    Size  Location     Type
  3284 ;;		None
  3285 ;; Auto vars:     Size  Location     Type
  3286 ;;		None
  3287 ;; Return value:  Size  Location     Type
  3288 ;;                  1    wreg      void 
  3289 ;; Registers used:
  3290 ;;		wreg, status,2, status,0, pclath, cstack
  3291 ;; Tracked objects:
  3292 ;;		On entry : B1F/0
  3293 ;;		On exit  : 0/0
  3294 ;;		Unchanged: 0/0
  3295 ;; Data sizes:     COMMON   BANK0   BANK1   BANK2   BANK3   BANK4   BANK5   BANK6   BANK7   BANK8   BANK9  BANK10  BANK1
      +1  BANK12
  3296 ;;      Params:         0       0       0       0       0       0       0       0       0       0       0       0       
      +0       0
  3297 ;;      Locals:         0       0       0       0       0       0       0       0       0       0       0       0       
      +0       0
  3298 ;;      Temps:          0       0       0       0       0       0       0       0       0       0       0       0       
      +0       0
  3299 ;;      Totals:         0       0       0       0       0       0       0       0       0       0       0       0       
      +0       0
  3300 ;;Total ram usage:        0 bytes
  3301 ;; Hardware stack levels required when called: 3
  3302 ;; This function calls:
  3303 ;;		_SYSTEM_Initialize
  3304 ;; This function is called by:
  3305 ;;		Startup code after reset
  3306 ;; This function uses a non-reentrant model
  3307 ;;
  3308                           
  3309     0782                     _main:	
  3310                           ;psect for function _main
  3311                           
  3312     0782                     l891:	
  3313                           ;incstack = 0
  3314                           ; Regs used in _main: [wreg+status,2+status,0+pclath+cstack]
  3315                           
  3316                           
  3317                           ;main.c: 7:     SYSTEM_Initialize();
  3318     0782  3187  279E  3187   	fcall	_SYSTEM_Initialize
  3319     0785                     l170:	
  3320                           ;main.c: 10:     while (1)
  3321                           
  3322     0785                     l171:	
  3323                           ;main.c: 11:     {;main.c: 13:     }
  3324                           
  3325     0785  2F85               	goto	l170
  3326     0786  3180  2803         	ljmp	start
  3327     0788                     __end_of_main:
  3328                           
  3329                           	psect	text1
  3330     079E                     __ptext1:	
  3331 ;; *************** function _SYSTEM_Initialize *****************
  3332 ;; Defined at:
  3333 ;;		line 83 in file "mcc_generated_files/mcc.c"
  3334 ;; Parameters:    Size  Location     Type
  3335 ;;		None
  3336 ;; Auto vars:     Size  Location     Type
  3337 ;;		None
  3338 ;; Return value:  Size  Location     Type
  3339 ;;                  1    wreg      void 
  3340 ;; Registers used:
  3341 ;;		wreg, status,2, status,0, pclath, cstack
  3342 ;; Tracked objects:
  3343 ;;		On entry : 0/0
  3344 ;;		On exit  : 0/0
  3345 ;;		Unchanged: 0/0
  3346 ;; Data sizes:     COMMON   BANK0   BANK1   BANK2   BANK3   BANK4   BANK5   BANK6   BANK7   BANK8   BANK9  BANK10  BANK1
      +1  BANK12
  3347 ;;      Params:         0       0       0       0       0       0       0       0       0       0       0       0       
      +0       0
  3348 ;;      Locals:         0       0       0       0       0       0       0       0       0       0       0       0       
      +0       0
  3349 ;;      Temps:          0       0       0       0       0       0       0       0       0       0       0       0       
      +0       0
  3350 ;;      Totals:         0       0       0       0       0       0       0       0       0       0       0       0       
      +0       0
  3351 ;;Total ram usage:        0 bytes
  3352 ;; Hardware stack levels used: 1
  3353 ;; Hardware stack levels required when called: 2
  3354 ;; This function calls:
  3355 ;;		_OSCILLATOR_Initialize
  3356 ;;		_PIN_MANAGER_Initialize
  3357 ;;		_PWM6_Initialize
  3358 ;;		_TMR2_Initialize
  3359 ;; This function is called by:
  3360 ;;		_main
  3361 ;; This function uses a non-reentrant model
  3362 ;;
  3363                           
  3364     079E                     _SYSTEM_Initialize:	
  3365                           ;psect for function _SYSTEM_Initialize
  3366                           
  3367     079E                     l855:	
  3368                           ;incstack = 0
  3369                           ; Regs used in _SYSTEM_Initialize: [wreg+status,2+status,0+pclath+cstack]
  3370                           
  3371                           
  3372                           ;mcc_generated_files/mcc.c: 86:     PIN_MANAGER_Initialize();
  3373     079E  3187  27BB  3187   	fcall	_PIN_MANAGER_Initialize
  3374                           
  3375                           ;mcc_generated_files/mcc.c: 87:     OSCILLATOR_Initialize();
  3376     07A1  3187  2788  3187   	fcall	_OSCILLATOR_Initialize
  3377                           
  3378                           ;mcc_generated_files/mcc.c: 88:     PWM6_Initialize();
  3379     07A4  3187  2791  3187   	fcall	_PWM6_Initialize
  3380                           
  3381                           ;mcc_generated_files/mcc.c: 89:     TMR2_Initialize();
  3382     07A7  3187  27AB  3187   	fcall	_TMR2_Initialize
  3383     07AA                     l21:
  3384     07AA  0008               	return
  3385     07AB                     __end_of_SYSTEM_Initialize:
  3386                           
  3387                           	psect	text2
  3388     07AB                     __ptext2:	
  3389 ;; *************** function _TMR2_Initialize *****************
  3390 ;; Defined at:
  3391 ;;		line 63 in file "mcc_generated_files/tmr2.c"
  3392 ;; Parameters:    Size  Location     Type
  3393 ;;		None
  3394 ;; Auto vars:     Size  Location     Type
  3395 ;;		None
  3396 ;; Return value:  Size  Location     Type
  3397 ;;                  1    wreg      void 
  3398 ;; Registers used:
  3399 ;;		wreg, status,2, status,0, pclath, cstack
  3400 ;; Tracked objects:
  3401 ;;		On entry : 0/0
  3402 ;;		On exit  : 0/0
  3403 ;;		Unchanged: 0/0
  3404 ;; Data sizes:     COMMON   BANK0   BANK1   BANK2   BANK3   BANK4   BANK5   BANK6   BANK7   BANK8   BANK9  BANK10  BANK1
      +1  BANK12
  3405 ;;      Params:         0       0       0       0       0       0       0       0       0       0       0       0       
      +0       0
  3406 ;;      Locals:         0       0       0       0       0       0       0       0       0       0       0       0       
      +0       0
  3407 ;;      Temps:          0       0       0       0       0       0       0       0       0       0       0       0       
      +0       0
  3408 ;;      Totals:         0       0       0       0       0       0       0       0       0       0       0       0       
      +0       0
  3409 ;;Total ram usage:        0 bytes
  3410 ;; Hardware stack levels used: 1
  3411 ;; Hardware stack levels required when called: 1
  3412 ;; This function calls:
  3413 ;;		_TMR2_Start
  3414 ;; This function is called by:
  3415 ;;		_SYSTEM_Initialize
  3416 ;; This function uses a non-reentrant model
  3417 ;;
  3418                           
  3419     07AB                     _TMR2_Initialize:	
  3420                           ;psect for function _TMR2_Initialize
  3421                           
  3422     07AB                     l843:	
  3423                           ;incstack = 0
  3424                           ; Regs used in _TMR2_Initialize: [wreg+status,2+status,0+pclath+cstack]
  3425                           
  3426                           
  3427                           ;mcc_generated_files/tmr2.c: 68:     T2CON = 0x40;
  3428     07AB  3040               	movlw	64
  3429     07AC  0025               	movlb	5	; select bank5
  3430     07AD  008E               	movwf	14	;volatile
  3431                           
  3432                           ;mcc_generated_files/tmr2.c: 71:     T2CLKCON = 0x01;
  3433     07AE  3001               	movlw	1
  3434     07AF  0090               	movwf	16	;volatile
  3435     07B0                     l845:
  3436                           
  3437                           ;mcc_generated_files/tmr2.c: 74:     T2HLT = 0x00;
  3438     07B0  018F               	clrf	15	;volatile
  3439     07B1                     l847:
  3440                           
  3441                           ;mcc_generated_files/tmr2.c: 77:     T2RST = 0x00;
  3442     07B1  0191               	clrf	17	;volatile
  3443                           
  3444                           ;mcc_generated_files/tmr2.c: 80:     T2PR = 0x78;
  3445     07B2  3078               	movlw	120
  3446     07B3  008D               	movwf	13	;volatile
  3447     07B4                     l849:
  3448                           
  3449                           ;mcc_generated_files/tmr2.c: 83:     T2TMR = 0x00;
  3450     07B4  018C               	clrf	12	;volatile
  3451     07B5                     l851:
  3452                           
  3453                           ;mcc_generated_files/tmr2.c: 86:     PIR4bits.TMR2IF = 0;
  3454     07B5  002E               	movlb	14	; select bank14
  3455     07B6  1090               	bcf	16,1	;volatile
  3456     07B7                     l853:
  3457                           
  3458                           ;mcc_generated_files/tmr2.c: 89:     TMR2_Start();
  3459     07B7  3187  277F  3187   	fcall	_TMR2_Start
  3460     07BA                     l123:
  3461     07BA  0008               	return
  3462     07BB                     __end_of_TMR2_Initialize:
  3463                           
  3464                           	psect	text3
  3465     077F                     __ptext3:	
  3466 ;; *************** function _TMR2_Start *****************
  3467 ;; Defined at:
  3468 ;;		line 104 in file "mcc_generated_files/tmr2.c"
  3469 ;; Parameters:    Size  Location     Type
  3470 ;;		None
  3471 ;; Auto vars:     Size  Location     Type
  3472 ;;		None
  3473 ;; Return value:  Size  Location     Type
  3474 ;;                  1    wreg      void 
  3475 ;; Registers used:
  3476 ;;		None
  3477 ;; Tracked objects:
  3478 ;;		On entry : 0/0
  3479 ;;		On exit  : 0/0
  3480 ;;		Unchanged: 0/0
  3481 ;; Data sizes:     COMMON   BANK0   BANK1   BANK2   BANK3   BANK4   BANK5   BANK6   BANK7   BANK8   BANK9  BANK10  BANK1
      +1  BANK12
  3482 ;;      Params:         0       0       0       0       0       0       0       0       0       0       0       0       
      +0       0
  3483 ;;      Locals:         0       0       0       0       0       0       0       0       0       0       0       0       
      +0       0
  3484 ;;      Temps:          0       0       0       0       0       0       0       0       0       0       0       0       
      +0       0
  3485 ;;      Totals:         0       0       0       0       0       0       0       0       0       0       0       0       
      +0       0
  3486 ;;Total ram usage:        0 bytes
  3487 ;; Hardware stack levels used: 1
  3488 ;; This function calls:
  3489 ;;		Nothing
  3490 ;; This function is called by:
  3491 ;;		_TMR2_Initialize
  3492 ;;		_TMR2_StartTimer
  3493 ;; This function uses a non-reentrant model
  3494 ;;
  3495                           
  3496     077F                     _TMR2_Start:	
  3497                           ;psect for function _TMR2_Start
  3498                           
  3499     077F                     l783:	
  3500                           ;incstack = 0
  3501                           ; Regs used in _TMR2_Start: []
  3502                           
  3503                           
  3504                           ;mcc_generated_files/tmr2.c: 107:     T2CONbits.TMR2ON = 1;
  3505     077F  0025               	movlb	5	; select bank5
  3506     0780  178E               	bsf	14,7	;volatile
  3507     0781                     l132:
  3508     0781  0008               	return
  3509     0782                     __end_of_TMR2_Start:
  3510                           
  3511                           	psect	text4
  3512     0791                     __ptext4:	
  3513 ;; *************** function _PWM6_Initialize *****************
  3514 ;; Defined at:
  3515 ;;		line 57 in file "mcc_generated_files/pwm6.c"
  3516 ;; Parameters:    Size  Location     Type
  3517 ;;		None
  3518 ;; Auto vars:     Size  Location     Type
  3519 ;;		None
  3520 ;; Return value:  Size  Location     Type
  3521 ;;                  1    wreg      void 
  3522 ;; Registers used:
  3523 ;;		wreg, status,2, status,0
  3524 ;; Tracked objects:
  3525 ;;		On entry : 0/0
  3526 ;;		On exit  : 0/0
  3527 ;;		Unchanged: 0/0
  3528 ;; Data sizes:     COMMON   BANK0   BANK1   BANK2   BANK3   BANK4   BANK5   BANK6   BANK7   BANK8   BANK9  BANK10  BANK1
      +1  BANK12
  3529 ;;      Params:         0       0       0       0       0       0       0       0       0       0       0       0       
      +0       0
  3530 ;;      Locals:         0       0       0       0       0       0       0       0       0       0       0       0       
      +0       0
  3531 ;;      Temps:          0       0       0       0       0       0       0       0       0       0       0       0       
      +0       0
  3532 ;;      Totals:         0       0       0       0       0       0       0       0       0       0       0       0       
      +0       0
  3533 ;;Total ram usage:        0 bytes
  3534 ;; Hardware stack levels used: 1
  3535 ;; This function calls:
  3536 ;;		Nothing
  3537 ;; This function is called by:
  3538 ;;		_SYSTEM_Initialize
  3539 ;; This function uses a non-reentrant model
  3540 ;;
  3541                           
  3542     0791                     _PWM6_Initialize:	
  3543                           ;psect for function _PWM6_Initialize
  3544                           
  3545     0791                     l839:	
  3546                           ;incstack = 0
  3547                           ; Regs used in _PWM6_Initialize: [wreg+status,2+status,0]
  3548                           
  3549                           
  3550                           ;mcc_generated_files/pwm6.c: 61:      PWM6CON = 0x80;
  3551     0791  3080               	movlw	128
  3552     0792  0027               	movlb	7	; select bank7
  3553     0793  008E               	movwf	14	;volatile
  3554                           
  3555                           ;mcc_generated_files/pwm6.c: 64:      PWM6DCH = 0x3C;
  3556     0794  303C               	movlw	60
  3557     0795  008D               	movwf	13	;volatile
  3558                           
  3559                           ;mcc_generated_files/pwm6.c: 67:      PWM6DCL = 0x40;
  3560     0796  3040               	movlw	64
  3561     0797  008C               	movwf	12	;volatile
  3562     0798                     l841:
  3563                           
  3564                           ;mcc_generated_files/pwm6.c: 71:      CCPTMRS1bits.P6TSEL = 0x1;
  3565     0798  0024               	movlb	4	; select bank4
  3566     0799  081F               	movf	31,w	;volatile
  3567     079A  39F3               	andlw	-13
  3568     079B  3804               	iorlw	4
  3569     079C  009F               	movwf	31	;volatile
  3570     079D                     l89:
  3571     079D  0008               	return
  3572     079E                     __end_of_PWM6_Initialize:
  3573                           
  3574                           	psect	text5
  3575     07BB                     __ptext5:	
  3576 ;; *************** function _PIN_MANAGER_Initialize *****************
  3577 ;; Defined at:
  3578 ;;		line 51 in file "mcc_generated_files/pin_manager.c"
  3579 ;; Parameters:    Size  Location     Type
  3580 ;;		None
  3581 ;; Auto vars:     Size  Location     Type
  3582 ;;  state           1    0[COMMON] _Bool 
  3583 ;; Return value:  Size  Location     Type
  3584 ;;                  1    wreg      void 
  3585 ;; Registers used:
  3586 ;;		wreg, status,2, status,0
  3587 ;; Tracked objects:
  3588 ;;		On entry : 0/0
  3589 ;;		On exit  : 0/0
  3590 ;;		Unchanged: 0/0
  3591 ;; Data sizes:     COMMON   BANK0   BANK1   BANK2   BANK3   BANK4   BANK5   BANK6   BANK7   BANK8   BANK9  BANK10  BANK1
      +1  BANK12
  3592 ;;      Params:         0       0       0       0       0       0       0       0       0       0       0       0       
      +0       0
  3593 ;;      Locals:         1       0       0       0       0       0       0       0       0       0       0       0       
      +0       0
  3594 ;;      Temps:          0       0       0       0       0       0       0       0       0       0       0       0       
      +0       0
  3595 ;;      Totals:         1       0       0       0       0       0       0       0       0       0       0       0       
      +0       0
  3596 ;;Total ram usage:        1 bytes
  3597 ;; Hardware stack levels used: 1
  3598 ;; This function calls:
  3599 ;;		Nothing
  3600 ;; This function is called by:
  3601 ;;		_SYSTEM_Initialize
  3602 ;; This function uses a non-reentrant model
  3603 ;;
  3604                           
  3605     07BB                     _PIN_MANAGER_Initialize:	
  3606                           ;psect for function _PIN_MANAGER_Initialize
  3607                           
  3608     07BB                     l785:	
  3609                           ;incstack = 0
  3610                           ; Regs used in _PIN_MANAGER_Initialize: [wreg+status,2+status,0]
  3611                           
  3612                           
  3613                           ;mcc_generated_files/pin_manager.c: 56:     LATA = 0x00;
  3614     07BB  0020               	movlb	0	; select bank0
  3615     07BC  0196               	clrf	22	;volatile
  3616                           
  3617                           ;mcc_generated_files/pin_manager.c: 57:     LATB = 0x00;
  3618     07BD  0197               	clrf	23	;volatile
  3619                           
  3620                           ;mcc_generated_files/pin_manager.c: 58:     LATC = 0x00;
  3621     07BE  0198               	clrf	24	;volatile
  3622     07BF                     l787:
  3623                           
  3624                           ;mcc_generated_files/pin_manager.c: 63:     TRISA = 0xF0;
  3625     07BF  30F0               	movlw	240
  3626     07C0  0091               	movwf	17	;volatile
  3627     07C1                     l789:
  3628                           
  3629                           ;mcc_generated_files/pin_manager.c: 64:     TRISB = 0xFF;
  3630     07C1  30FF               	movlw	255
  3631     07C2  0092               	movwf	18	;volatile
  3632     07C3                     l791:
  3633                           
  3634                           ;mcc_generated_files/pin_manager.c: 65:     TRISC = 0xFF;
  3635     07C3  30FF               	movlw	255
  3636     07C4  0093               	movwf	19	;volatile
  3637     07C5                     l793:
  3638                           
  3639                           ;mcc_generated_files/pin_manager.c: 70:     ANSELC = 0xF7;
  3640     07C5  30F7               	movlw	247
  3641     07C6  003E               	movlb	30	; select bank30
  3642     07C7  00CE               	movwf	78	;volatile
  3643     07C8                     l795:
  3644                           
  3645                           ;mcc_generated_files/pin_manager.c: 71:     ANSELB = 0xFF;
  3646     07C8  30FF               	movlw	255
  3647     07C9  00C3               	movwf	67	;volatile
  3648     07CA                     l797:
  3649                           
  3650                           ;mcc_generated_files/pin_manager.c: 72:     ANSELA = 0xFF;
  3651     07CA  30FF               	movlw	255
  3652     07CB  00B8               	movwf	56	;volatile
  3653     07CC                     l799:
  3654                           
  3655                           ;mcc_generated_files/pin_manager.c: 77:     WPUE = 0x08;
  3656     07CC  3008               	movlw	8
  3657     07CD  00E5               	movwf	101	;volatile
  3658     07CE                     l801:
  3659                           
  3660                           ;mcc_generated_files/pin_manager.c: 78:     WPUB = 0xFF;
  3661     07CE  30FF               	movlw	255
  3662     07CF  00C4               	movwf	68	;volatile
  3663     07D0                     l803:
  3664                           
  3665                           ;mcc_generated_files/pin_manager.c: 79:     WPUA = 0xFF;
  3666     07D0  30FF               	movlw	255
  3667     07D1  00B9               	movwf	57	;volatile
  3668     07D2                     l805:
  3669                           
  3670                           ;mcc_generated_files/pin_manager.c: 80:     WPUC = 0xFF;
  3671     07D2  30FF               	movlw	255
  3672     07D3  00CF               	movwf	79	;volatile
  3673                           
  3674                           ;mcc_generated_files/pin_manager.c: 85:     ODCONA = 0x00;
  3675     07D4  01BA               	clrf	58	;volatile
  3676                           
  3677                           ;mcc_generated_files/pin_manager.c: 86:     ODCONB = 0x00;
  3678     07D5  01C5               	clrf	69	;volatile
  3679                           
  3680                           ;mcc_generated_files/pin_manager.c: 87:     ODCONC = 0x00;
  3681     07D6  01D0               	clrf	80	;volatile
  3682     07D7                     l807:
  3683                           
  3684                           ;mcc_generated_files/pin_manager.c: 94:     _Bool state = GIE;
  3685     07D7  3000               	movlw	0
  3686     07D8  1B8B               	btfsc	11,7	;volatile
  3687     07D9  3001               	movlw	1
  3688     07DA  00F2               	movwf	PIN_MANAGER_Initialize@state
  3689     07DB                     l809:
  3690                           
  3691                           ;mcc_generated_files/pin_manager.c: 95:     GIE = 0;
  3692     07DB  138B               	bcf	11,7	;volatile
  3693                           
  3694                           ;mcc_generated_files/pin_manager.c: 96:     PPSLOCK = 0x55;
  3695     07DC  3055               	movlw	85
  3696     07DD  003D               	movlb	29	; select bank29
  3697     07DE  008F               	movwf	15	;volsfr
  3698                           
  3699                           ;mcc_generated_files/pin_manager.c: 97:     PPSLOCK = 0xAA;
  3700     07DF  30AA               	movlw	170
  3701     07E0  008F               	movwf	15	;volsfr
  3702     07E1                     l811:
  3703                           
  3704                           ;mcc_generated_files/pin_manager.c: 98:     PPSLOCKbits.PPSLOCKED = 0x00;
  3705     07E1  100F               	bcf	15,0	;volsfr
  3706     07E2                     l813:
  3707                           
  3708                           ;mcc_generated_files/pin_manager.c: 100:     T2AINPPSbits.T2AINPPS = 0x13;
  3709     07E2  081C               	movf	28,w	;volatile
  3710     07E3  39E0               	andlw	-32
  3711     07E4  3813               	iorlw	19
  3712     07E5  009C               	movwf	28	;volatile
  3713     07E6                     l815:
  3714                           
  3715                           ;mcc_generated_files/pin_manager.c: 101:     RA1PPS = 0x0E;
  3716     07E6  300E               	movlw	14
  3717     07E7  003E               	movlb	30	; select bank30
  3718     07E8  0091               	movwf	17	;volatile
  3719     07E9                     l817:
  3720                           
  3721                           ;mcc_generated_files/pin_manager.c: 102:     RA2PPS = 0x0E;
  3722     07E9  300E               	movlw	14
  3723     07EA  0092               	movwf	18	;volatile
  3724     07EB                     l819:
  3725                           
  3726                           ;mcc_generated_files/pin_manager.c: 103:     RA0PPS = 0x0E;
  3727     07EB  300E               	movlw	14
  3728     07EC  0090               	movwf	16	;volatile
  3729     07ED                     l821:
  3730                           
  3731                           ;mcc_generated_files/pin_manager.c: 104:     RA3PPS = 0x0E;
  3732     07ED  300E               	movlw	14
  3733     07EE  0093               	movwf	19	;volatile
  3734     07EF                     l823:
  3735                           
  3736                           ;mcc_generated_files/pin_manager.c: 106:     PPSLOCK = 0x55;
  3737     07EF  3055               	movlw	85
  3738     07F0  003D               	movlb	29	; select bank29
  3739     07F1  008F               	movwf	15	;volsfr
  3740     07F2                     l825:
  3741                           
  3742                           ;mcc_generated_files/pin_manager.c: 107:     PPSLOCK = 0xAA;
  3743     07F2  30AA               	movlw	170
  3744     07F3  008F               	movwf	15	;volsfr
  3745     07F4                     l827:
  3746                           
  3747                           ;mcc_generated_files/pin_manager.c: 108:     PPSLOCKbits.PPSLOCKED = 0x01;
  3748     07F4  140F               	bsf	15,0	;volsfr
  3749     07F5                     l829:
  3750                           
  3751                           ;mcc_generated_files/pin_manager.c: 110:     GIE = state;
  3752     07F5  0C72               	rrf	PIN_MANAGER_Initialize@state,w
  3753     07F6  1C03               	skipc
  3754     07F7  138B               	bcf	11,7	;volatile
  3755     07F8  1803               	skipnc
  3756     07F9  178B               	bsf	11,7	;volatile
  3757     07FA                     l75:
  3758     07FA  0008               	return
  3759     07FB                     __end_of_PIN_MANAGER_Initialize:
  3760                           
  3761                           	psect	text6
  3762     0788                     __ptext6:	
  3763 ;; *************** function _OSCILLATOR_Initialize *****************
  3764 ;; Defined at:
  3765 ;;		line 92 in file "mcc_generated_files/mcc.c"
  3766 ;; Parameters:    Size  Location     Type
  3767 ;;		None
  3768 ;; Auto vars:     Size  Location     Type
  3769 ;;		None
  3770 ;; Return value:  Size  Location     Type
  3771 ;;                  1    wreg      void 
  3772 ;; Registers used:
  3773 ;;		wreg, status,2
  3774 ;; Tracked objects:
  3775 ;;		On entry : 0/0
  3776 ;;		On exit  : 0/0
  3777 ;;		Unchanged: 0/0
  3778 ;; Data sizes:     COMMON   BANK0   BANK1   BANK2   BANK3   BANK4   BANK5   BANK6   BANK7   BANK8   BANK9  BANK10  BANK1
      +1  BANK12
  3779 ;;      Params:         0       0       0       0       0       0       0       0       0       0       0       0       
      +0       0
  3780 ;;      Locals:         0       0       0       0       0       0       0       0       0       0       0       0       
      +0       0
  3781 ;;      Temps:          0       0       0       0       0       0       0       0       0       0       0       0       
      +0       0
  3782 ;;      Totals:         0       0       0       0       0       0       0       0       0       0       0       0       
      +0       0
  3783 ;;Total ram usage:        0 bytes
  3784 ;; Hardware stack levels used: 1
  3785 ;; This function calls:
  3786 ;;		Nothing
  3787 ;; This function is called by:
  3788 ;;		_SYSTEM_Initialize
  3789 ;; This function uses a non-reentrant model
  3790 ;;
  3791                           
  3792     0788                     _OSCILLATOR_Initialize:	
  3793                           ;psect for function _OSCILLATOR_Initialize
  3794                           
  3795     0788                     l831:	
  3796                           ;incstack = 0
  3797                           ; Regs used in _OSCILLATOR_Initialize: [wreg+status,2]
  3798                           
  3799                           
  3800                           ;mcc_generated_files/mcc.c: 95:     OSCCON1 = 0x52;
  3801     0788  3052               	movlw	82
  3802     0789  0031               	movlb	17	; select bank17
  3803     078A  008D               	movwf	13	;volatile
  3804     078B                     l833:
  3805                           
  3806                           ;mcc_generated_files/mcc.c: 97:     OSCCON3 = 0x00;
  3807     078B  018F               	clrf	15	;volatile
  3808     078C                     l835:
  3809                           
  3810                           ;mcc_generated_files/mcc.c: 99:     OSCEN = 0x00;
  3811     078C  0191               	clrf	17	;volatile
  3812                           
  3813                           ;mcc_generated_files/mcc.c: 101:     OSCFRQ = 0x02;
  3814     078D  3002               	movlw	2
  3815     078E  0093               	movwf	19	;volatile
  3816     078F                     l837:
  3817                           
  3818                           ;mcc_generated_files/mcc.c: 103:     OSCTUNE = 0x00;
  3819     078F  0192               	clrf	18	;volatile
  3820     0790                     l24:
  3821     0790  0008               	return
  3822     0791                     __end_of_OSCILLATOR_Initialize:
  3823     007E                     btemp	set	126	;btemp
  3824     007E                     wtemp0	set	126
  3825                           
  3826                           	psect	idloc
  3827                           
  3828                           ;Config register IDLOC0 @ 0x8000
  3829                           ;	unspecified, using default values
  3830     8000                     	org	32768
  3831     8000  3FFF               	dw	16383
  3832                           
  3833                           ;Config register IDLOC1 @ 0x8001
  3834                           ;	unspecified, using default values
  3835     8001                     	org	32769
  3836     8001  3FFF               	dw	16383
  3837                           
  3838                           ;Config register IDLOC2 @ 0x8002
  3839                           ;	unspecified, using default values
  3840     8002                     	org	32770
  3841     8002  3FFF               	dw	16383
  3842                           
  3843                           ;Config register IDLOC3 @ 0x8003
  3844                           ;	unspecified, using default values
  3845     8003                     	org	32771
  3846     8003  3FFF               	dw	16383
  3847                           
  3848                           	psect	config
  3849                           
  3850                           ;Config register CONFIG1 @ 0x8007
  3851                           ;	External Oscillator mode selection bits
  3852                           ;	FEXTOSC = OFF, Oscillator not enabled
  3853                           ;	Power-up default value for COSC bits
  3854                           ;	RSTOSC = LFINT, LFINTOSC
  3855                           ;	Clock Out Enable bit
  3856                           ;	CLKOUTEN = OFF, CLKOUT function is disabled; i/o or oscillator function on OSC2
  3857                           ;	Clock Switch Enable bit
  3858                           ;	CSWEN = ON, Writing to NOSC and NDIV is allowed
  3859                           ;	Fail-Safe Clock Monitor Enable bit
  3860                           ;	FCMEN = ON, FSCM timer enabled
  3861     8007                     	org	32775
  3862     8007  3FDC               	dw	16348
  3863                           
  3864                           ;Config register CONFIG2 @ 0x8008
  3865                           ;	Master Clear Enable bit
  3866                           ;	MCLRE = ON, MCLR pin is Master Clear function
  3867                           ;	Power-up Timer Enable bit
  3868                           ;	PWRTE = OFF, PWRT disabled
  3869                           ;	Low-Power BOR enable bit
  3870                           ;	LPBOREN = OFF, ULPBOR disabled
  3871                           ;	Brown-out reset enable bits
  3872                           ;	BOREN = ON, Brown-out Reset Enabled, SBOREN bit is ignored
  3873                           ;	Brown-out Reset Voltage Selection
  3874                           ;	BORV = LO, Brown-out Reset Voltage (VBOR) set to 1.9V on LF, and 2.45V on F Devices
  3875                           ;	Zero-cross detect disable
  3876                           ;	ZCD = ON, Zero-cross detect circuit is always enabled
  3877                           ;	Peripheral Pin Select one-way control
  3878                           ;	PPS1WAY = ON, The PPSLOCK bit can be cleared and set only once in software
  3879                           ;	Stack Overflow/Underflow Reset Enable bit
  3880                           ;	STVREN = ON, Stack Overflow or Underflow will cause a reset
  3881                           ;	Background Debugger
  3882                           ;	DEBUG = OFF, Background Debugger disabled
  3883     8008                     	org	32776
  3884     8008  3BFF               	dw	15359
  3885                           
  3886                           ;Config register CONFIG3 @ 0x8009
  3887                           ;	WDT Period Select bits
  3888                           ;	WDTCPS = WDTCPS_31, Divider ratio 1:65536; software control of WDTPS
  3889                           ;	WDT operating mode
  3890                           ;	WDTE = OFF, WDT Disabled, SWDTEN is ignored
  3891                           ;	WDT Window Select bits
  3892                           ;	WDTCWS = WDTCWS_7, window always open (100%); software control; keyed access not requi
      +                          red
  3893                           ;	WDT input clock selector
  3894                           ;	WDTCCS = SC, Software Control
  3895     8009                     	org	32777
  3896     8009  3F9F               	dw	16287
  3897                           
  3898                           ;Config register CONFIG4 @ 0x800A
  3899                           ;	UserNVM self-write protection bits
  3900                           ;	WRT = OFF, Write protection off
  3901                           ;	Scanner Enable bit
  3902                           ;	SCANE = available, Scanner module is available for use
  3903                           ;	Low Voltage Programming Enable bit
  3904                           ;	LVP = OFF, High Voltage on MCLR/Vpp must be used for programming
  3905     800A                     	org	32778
  3906     800A  1FFF               	dw	8191
  3907                           
  3908                           ;Config register CONFIG5 @ 0x800B
  3909                           ;	UserNVM Program memory code protection bit
  3910                           ;	CP = OFF, Program Memory code protection disabled
  3911                           ;	DataNVM code protection bit
  3912                           ;	CPD = OFF, Data EEPROM code protection disabled
  3913     800B                     	org	32779
  3914     800B  3FFF               	dw	16383

Data Sizes:
    Strings     0
    Constant    0
    Data        0
    BSS         2
    Persistent  32
    Stack       0

Auto Spaces:
    Space          Size  Autos    Used
    COMMON           14      1       3
    BANK0            80      0       0
    BANK1            80      0       0
    BANK2            80      0       0
    BANK3            80      0       0
    BANK4            80      0       0
    BANK5            80      0       0
    BANK6            80      0       0
    BANK7            80      0       0
    BANK8            80      0       0
    BANK9            80      0       0
    BANK10           80      0       0
    BANK11           80      0       0
    BANK12           48      0       0

Pointer List with Targets:

    TMR2_InterruptHandler	PTR FTN()void  size(2) Largest target is 1
		 -> NULL(), 


Critical Paths under _main in COMMON

    _SYSTEM_Initialize->_PIN_MANAGER_Initialize

Critical Paths under _main in BANK0

    None.

Critical Paths under _main in BANK1

    None.

Critical Paths under _main in BANK2

    None.

Critical Paths under _main in BANK3

    None.

Critical Paths under _main in BANK4

    None.

Critical Paths under _main in BANK5

    None.

Critical Paths under _main in BANK6

    None.

Critical Paths under _main in BANK7

    None.

Critical Paths under _main in BANK8

    None.

Critical Paths under _main in BANK9

    None.

Critical Paths under _main in BANK10

    None.

Critical Paths under _main in BANK11

    None.

Critical Paths under _main in BANK12

    None.

Call Graph Tables:

 ---------------------------------------------------------------------------------
 (Depth) Function   	        Calls       Base Space   Used Autos Params    Refs
 ---------------------------------------------------------------------------------
 (0) _main                                                 0     0      0      15
                  _SYSTEM_Initialize
 ---------------------------------------------------------------------------------
 (1) _SYSTEM_Initialize                                    0     0      0      15
              _OSCILLATOR_Initialize
             _PIN_MANAGER_Initialize
                    _PWM6_Initialize
                    _TMR2_Initialize
 ---------------------------------------------------------------------------------
 (2) _TMR2_Initialize                                      0     0      0       0
                         _TMR2_Start
 ---------------------------------------------------------------------------------
 (3) _TMR2_Start                                           0     0      0       0
 ---------------------------------------------------------------------------------
 (2) _PWM6_Initialize                                      0     0      0       0
 ---------------------------------------------------------------------------------
 (2) _PIN_MANAGER_Initialize                               1     1      0      15
                                              0 COMMON     1     1      0
 ---------------------------------------------------------------------------------
 (2) _OSCILLATOR_Initialize                                0     0      0       0
 ---------------------------------------------------------------------------------
 Estimated maximum stack depth 3
 ---------------------------------------------------------------------------------

 Call Graph Graphs:

 _main (ROOT)
   _SYSTEM_Initialize
     _OSCILLATOR_Initialize
     _PIN_MANAGER_Initialize
     _PWM6_Initialize
     _TMR2_Initialize
       _TMR2_Start

 Address spaces:
Name               Size   Autos  Total    Cost      Usage
BIGRAM             3F0      0       0       0        0.0%
EEDATA             100      0       0       0        0.0%
NULL                 0      0       0       0        0.0%
CODE                 0      0       0       0        0.0%
BITCOMMON            E      0       0       1        0.0%
BITSFR0              0      0       0       1        0.0%
SFR0                 0      0       0       1        0.0%
COMMON               E      1       3       2       21.4%
BITSFR1              0      0       0       2        0.0%
SFR1                 0      0       0       2        0.0%
BITSFR2              0      0       0       3        0.0%
SFR2                 0      0       0       3        0.0%
STACK                0      0       0       3        0.0%
BITBANK0            50      0       0       4        0.0%
BITSFR3              0      0       0       4        0.0%
SFR3                 0      0       0       4        0.0%
BANK0               50      0       0       5        0.0%
BITSFR4              0      0       0       5        0.0%
SFR4                 0      0       0       5        0.0%
BITBANK1            50      0       0       6        0.0%
BITSFR5              0      0       0       6        0.0%
SFR5                 0      0       0       6        0.0%
BANK1               50      0       0       7        0.0%
BITSFR6              0      0       0       7        0.0%
SFR6                 0      0       0       7        0.0%
BITBANK2            50      0       0       8        0.0%
BITSFR7              0      0       0       8        0.0%
SFR7                 0      0       0       8        0.0%
BANK2               50      0       0       9        0.0%
BITSFR8              0      0       0       9        0.0%
SFR8                 0      0       0       9        0.0%
BITBANK3            50      0       0      10        0.0%
BITSFR9              0      0       0      10        0.0%
SFR9                 0      0       0      10        0.0%
BANK3               50      0       0      11        0.0%
BITSFR10             0      0       0      11        0.0%
SFR10                0      0       0      11        0.0%
BITBANK4            50      0       0      12        0.0%
BITSFR11             0      0       0      12        0.0%
SFR11                0      0       0      12        0.0%
BANK4               50      0       0      13        0.0%
BITSFR12             0      0       0      13        0.0%
SFR12                0      0       0      13        0.0%
BITBANK5            50      0       0      14        0.0%
BITSFR13             0      0       0      14        0.0%
SFR13                0      0       0      14        0.0%
BANK5               50      0       0      15        0.0%
BITSFR14             0      0       0      15        0.0%
SFR14                0      0       0      15        0.0%
BITBANK6            50      0       0      16        0.0%
BITSFR15             0      0       0      16        0.0%
SFR15                0      0       0      16        0.0%
BANK6               50      0       0      17        0.0%
BITSFR16             0      0       0      17        0.0%
SFR16                0      0       0      17        0.0%
BITBANK7            50      0       0      18        0.0%
BITSFR17             0      0       0      18        0.0%
SFR17                0      0       0      18        0.0%
BANK7               50      0       0      19        0.0%
BITSFR18             0      0       0      19        0.0%
SFR18                0      0       0      19        0.0%
BITSFR19             0      0       0      20        0.0%
SFR19                0      0       0      20        0.0%
ABS                  0      0       3      20        0.0%
BITBANK8            50      0       0      21        0.0%
BITSFR20             0      0       0      21        0.0%
SFR20                0      0       0      21        0.0%
BANK8               50      0       0      22        0.0%
BITSFR21             0      0       0      22        0.0%
SFR21                0      0       0      22        0.0%
BITBANK9            50      0       0      23        0.0%
BITSFR22             0      0       0      23        0.0%
SFR22                0      0       0      23        0.0%
BANK9               50      0       0      24        0.0%
BITSFR23             0      0       0      24        0.0%
SFR23                0      0       0      24        0.0%
BITBANK10           50      0       0      25        0.0%
BITSFR24             0      0       0      25        0.0%
SFR24                0      0       0      25        0.0%
BANK10              50      0       0      26        0.0%
BITSFR25             0      0       0      26        0.0%
SFR25                0      0       0      26        0.0%
BITBANK11           50      0       0      27        0.0%
BITSFR26             0      0       0      27        0.0%
SFR26                0      0       0      27        0.0%
BANK11              50      0       0      28        0.0%
BITSFR27             0      0       0      28        0.0%
SFR27                0      0       0      28        0.0%
BITBANK12           30      0       0      29        0.0%
BITSFR28             0      0       0      29        0.0%
SFR28                0      0       0      29        0.0%
BANK12              30      0       0      30        0.0%
BITSFR29             0      0       0      30        0.0%
SFR29                0      0       0      30        0.0%
BITSFR30             0      0       0      31        0.0%
SFR30                0      0       0      31        0.0%
DATA                 0      0       3      31        0.0%
BITSFR31             0      0       0      32        0.0%
SFR31                0      0       0      32        0.0%


Microchip Technology PIC Macro Assembler V2.45 build 20230818022343 
Symbol Table                                                                                   Tue Oct 31 21:16:32 2023

                            l21 07AA                              l24 0790                              l75 07FA  
                            l89 079D                             l123 07BA                             l132 0781  
                           l170 0785                             l171 0785                             l801 07CE  
                           l811 07E1                             l803 07D0                             l821 07ED  
                           l813 07E2                             l805 07D2                             l831 0788  
                           l823 07EF                             l815 07E6                             l807 07D7  
                           l833 078B                             l825 07F2                             l817 07E9  
                           l809 07DB                             l841 0798                             l835 078C  
                           l827 07F4                             l819 07EB                             l851 07B5  
                           l843 07AB                             l837 078F                             l829 07F5  
                           l853 07B7                             l845 07B0                             l791 07C3  
                           l839 0791                             l783 077F                             l847 07B1  
                           l855 079E                             l793 07C5                             l785 07BB  
                           l849 07B4                             l795 07C8                             l787 07BF  
                           l891 0782                             l797 07CA                             l789 07C1  
                           l799 07CC                             _GIE 005F                             _PR2 028D  
               _TMR2_Initialize 07AB                            _LATA 0016                            _LATB 0017  
                          _LATC 0018                            _T2PR 028D                            _TMR2 028C  
                          _WPUA 0F39                            _WPUB 0F44                            _WPUC 0F4F  
                          _WPUE 0F65                            _main 0782                            btemp 007E  
                          start 0003   __end_of_OSCILLATOR_Initialize 0791                           ?_main 0072  
                         _T2CON 028E                           _T2HLT 028F                           _T2TMR 028C  
                         _T2RST 0291                           _OSCEN 0891                           _TRISA 0011  
                         _TRISB 0012                           _TRISC 0013                 _PWM6_Initialize 0791  
                   ?_TMR2_Start 0072                           wtemp0 007E                 __initialization 07FB  
                  __end_of_main 0788         __end_of_TMR2_Initialize 07BB                          ??_main 0073  
                        _ANSELA 0F38                          _ANSELB 0F43                          _ANSELC 0F4E  
                        _RA0PPS 0F10                          _RA1PPS 0F11                          _RA2PPS 0F12  
                        _RA3PPS 0F13                          _ODCONA 0F3A                          _ODCONB 0F45  
                        _ODCONC 0F50                          _OSCFRQ 0893                    _CCPTMRS1bits 021F  
       __end_of_PWM6_Initialize 079E               _SYSTEM_Initialize 079E         __end_of__initialization 07FD  
            ?_SYSTEM_Initialize 0072                  __pcstackCOMMON 0072             ??_SYSTEM_Initialize 0073  
              ?_TMR2_Initialize 0072       __end_of_SYSTEM_Initialize 07AB                    _T2AINPPSbits 0E9C  
                    __pmaintext 0782                ?_PWM6_Initialize 0072                         _OSCCON1 088D  
                       _OSCCON3 088F                         _OSCTUNE 0892                         _PWM6DCH 038D  
                       _PWM6DCL 038C                         _PWM6CON 038E                         _PPSLOCK 0E8F  
                  ??_TMR2_Start 0072              __end_of_TMR2_Start 0782                         __ptext1 079E  
                       __ptext2 07AB                         __ptext3 077F                         __ptext4 0791  
                       __ptext5 07BB                         __ptext6 0788           _OSCILLATOR_Initialize 0788  
                     _T2CONbits 028E        ??_PIN_MANAGER_Initialize 0072                       _T2HLTbits 028F  
          end_of_initialization 07FD                       _T2RSTbits 0291          ?_OSCILLATOR_Initialize 0072  
           start_initialization 07FB                     __pbssCOMMON 0070                       ___latbits 0002  
        _PIN_MANAGER_Initialize 07BB                        _T2CLKCON 0290                        _PIR4bits 0710  
             ??_TMR2_Initialize 0072         ??_OSCILLATOR_Initialize 0072               ??_PWM6_Initialize 0072  
   PIN_MANAGER_Initialize@state 0072         ?_PIN_MANAGER_Initialize 0072                     _PPSLOCKbits 0E8F  
                    _TMR2_Start 077F  __end_of_PIN_MANAGER_Initialize 07FB           _TMR2_InterruptHandler 0070  
