

Microchip Technology PIC LITE Macro Assembler V1.41 build -162212810 
                                                                                               Wed Mar 29 18:35:59 2017

Microchip Technology Omniscient Code Generator v1.41 (Free mode) build 201701250102
     1                           	processor	16F18855
     2                           	opt	pw 120
     3                           	opt	lm
     4                           	psect	stringtext,global,class=STRCODE,delta=2
     5                           	psect	cinit,global,class=CODE,merge=1,delta=2
     6                           	psect	cstackCOMMON,global,class=COMMON,space=1,delta=1
     7                           	psect	maintext,global,class=CODE,merge=1,split=1,delta=2
     8                           	psect	text1,local,class=CODE,merge=1,delta=2
     9                           	psect	text2,local,class=CODE,merge=1,delta=2
    10                           	psect	text3,local,class=CODE,merge=1,delta=2
    11                           	psect	text4,local,class=CODE,merge=1,delta=2
    12                           	psect	text5,local,class=CODE,merge=1,delta=2
    13                           	psect	text6,local,class=CODE,merge=1,delta=2
    14                           	psect	text7,local,class=CODE,merge=1,delta=2
    15                           	psect	text8,local,class=CODE,merge=1,delta=2
    16                           	psect	text9,local,class=CODE,merge=1,delta=2
    17                           	dabs	1,0x7E,2
    18  0000                     
    19                           ; Version 1.41
    20                           ; Generated 25/01/2017 GMT
    21                           ; 
    22                           ; Copyright © 2017, Microchip Technology Inc. and its subsidiaries ("Microchip")
    23                           ; All rights reserved.
    24                           ; 
    25                           ; This software is developed by Microchip Technology Inc. and its subsidiaries ("Microch
      +                          ip").
    26                           ; 
    27                           ; Redistribution and use in source and binary forms, with or without modification, are
    28                           ; permitted provided that the following conditions are met:
    29                           ; 
    30                           ;     1. Redistributions of source code must retain the above copyright notice, this lis
      +                          t of
    31                           ;        conditions and the following disclaimer.
    32                           ; 
    33                           ;     2. Redistributions in binary form must reproduce the above copyright notice, this 
      +                          list
    34                           ;        of conditions and the following disclaimer in the documentation and/or other
    35                           ;        materials provided with the distribution.
    36                           ; 
    37                           ;     3. Microchip's name may not be used to endorse or promote products derived from th
      +                          is
    38                           ;        software without specific prior written permission.
    39                           ; 
    40                           ; THIS SOFTWARE IS PROVIDED BY MICROCHIP "AS IS" AND ANY EXPRESS OR IMPLIED WARRANTIES,
    41                           ; INCLUDING, BUT NOT LIMITED TO, THE IMPLIED WARRANTIES OF MERCHANTABILITY AND FITNESS F
      +                          OR
    42                           ; PURPOSE ARE DISCLAIMED.  IN NO EVENT SHALL MICROCHIP BE LIABLE FOR ANY DIRECT, INDIREC
      +                          T,
    43                           ; INCIDENTAL, SPECIAL, EXEMPLARY, OR CONSEQUENTIAL DAMAGES (INCLUDING BUT NOT LIMITED TO
    44                           ; PROCUREMENT OF SUBSTITUTE GOODS OR SERVICES; LOSS OF USE, DATA OR PROFITS; OR BUSINESS
    45                           ; INTERRUPTION) HOWSOEVER CAUSED AND ON ANY THEORY OF LIABILITY, WHETHER IN CONTRACT, ST
      +                          RICT
    46                           ; LIABILITY, OR TORT (INCLUDING NEGLIGENCE OR OTHERWISE) ARISING IN ANY WAY OUT OF THE U
      +                          SE OF
    47                           ; THIS SOFTWARE, EVEN IF ADVISED OF THE POSSIBILITY OF SUCH DAMAGE.
    48                           ; 
    49                           ; 
    50                           ; Code-generator required, PIC16F18855 Definitions
    51                           ; 
    52                           ; SFR Addresses
    53  0000                     	;# 
    54  0001                     	;# 
    55  0002                     	;# 
    56  0003                     	;# 
    57  0004                     	;# 
    58  0005                     	;# 
    59  0006                     	;# 
    60  0007                     	;# 
    61  0008                     	;# 
    62  0009                     	;# 
    63  000A                     	;# 
    64  000B                     	;# 
    65  000C                     	;# 
    66  000D                     	;# 
    67  000E                     	;# 
    68  0010                     	;# 
    69  0011                     	;# 
    70  0012                     	;# 
    71  0013                     	;# 
    72  0016                     	;# 
    73  0017                     	;# 
    74  0018                     	;# 
    75  001C                     	;# 
    76  001C                     	;# 
    77  001D                     	;# 
    78  001D                     	;# 
    79  001E                     	;# 
    80  001F                     	;# 
    81  008C                     	;# 
    82  008C                     	;# 
    83  008D                     	;# 
    84  008E                     	;# 
    85  008E                     	;# 
    86  008F                     	;# 
    87  0090                     	;# 
    88  0090                     	;# 
    89  0091                     	;# 
    90  0093                     	;# 
    91  0094                     	;# 
    92  0095                     	;# 
    93  0096                     	;# 
    94  0097                     	;# 
    95  0098                     	;# 
    96  0099                     	;# 
    97  009A                     	;# 
    98  009B                     	;# 
    99  009C                     	;# 
   100  009D                     	;# 
   101  009E                     	;# 
   102  010C                     	;# 
   103  010D                     	;# 
   104  010E                     	;# 
   105  010E                     	;# 
   106  010F                     	;# 
   107  0110                     	;# 
   108  0110                     	;# 
   109  0111                     	;# 
   110  0112                     	;# 
   111  0112                     	;# 
   112  0113                     	;# 
   113  0114                     	;# 
   114  0114                     	;# 
   115  0115                     	;# 
   116  0116                     	;# 
   117  0116                     	;# 
   118  0117                     	;# 
   119  0119                     	;# 
   120  0119                     	;# 
   121  0119                     	;# 
   122  011A                     	;# 
   123  011A                     	;# 
   124  011A                     	;# 
   125  011B                     	;# 
   126  011B                     	;# 
   127  011B                     	;# 
   128  011B                     	;# 
   129  011B                     	;# 
   130  011C                     	;# 
   131  011C                     	;# 
   132  011C                     	;# 
   133  011D                     	;# 
   134  011D                     	;# 
   135  011D                     	;# 
   136  011E                     	;# 
   137  011E                     	;# 
   138  011E                     	;# 
   139  011F                     	;# 
   140  011F                     	;# 
   141  011F                     	;# 
   142  011F                     	;# 
   143  011F                     	;# 
   144  018C                     	;# 
   145  018D                     	;# 
   146  018E                     	;# 
   147  018F                     	;# 
   148  0190                     	;# 
   149  0191                     	;# 
   150  0192                     	;# 
   151  0196                     	;# 
   152  0197                     	;# 
   153  0198                     	;# 
   154  0199                     	;# 
   155  019A                     	;# 
   156  019B                     	;# 
   157  019C                     	;# 
   158  020C                     	;# 
   159  020C                     	;# 
   160  020D                     	;# 
   161  020E                     	;# 
   162  020F                     	;# 
   163  020F                     	;# 
   164  0210                     	;# 
   165  0210                     	;# 
   166  0211                     	;# 
   167  0211                     	;# 
   168  0212                     	;# 
   169  0212                     	;# 
   170  0213                     	;# 
   171  0214                     	;# 
   172  0215                     	;# 
   173  0215                     	;# 
   174  0216                     	;# 
   175  0216                     	;# 
   176  0217                     	;# 
   177  0217                     	;# 
   178  0218                     	;# 
   179  0218                     	;# 
   180  0219                     	;# 
   181  021A                     	;# 
   182  021B                     	;# 
   183  021B                     	;# 
   184  021C                     	;# 
   185  021C                     	;# 
   186  021D                     	;# 
   187  021D                     	;# 
   188  021E                     	;# 
   189  021F                     	;# 
   190  028C                     	;# 
   191  028C                     	;# 
   192  028D                     	;# 
   193  028D                     	;# 
   194  028E                     	;# 
   195  028F                     	;# 
   196  0290                     	;# 
   197  0290                     	;# 
   198  0291                     	;# 
   199  0292                     	;# 
   200  0292                     	;# 
   201  0293                     	;# 
   202  0293                     	;# 
   203  0294                     	;# 
   204  0295                     	;# 
   205  0296                     	;# 
   206  0296                     	;# 
   207  0297                     	;# 
   208  0298                     	;# 
   209  0298                     	;# 
   210  0299                     	;# 
   211  0299                     	;# 
   212  029A                     	;# 
   213  029B                     	;# 
   214  029C                     	;# 
   215  029C                     	;# 
   216  029D                     	;# 
   217  030C                     	;# 
   218  030C                     	;# 
   219  030D                     	;# 
   220  030E                     	;# 
   221  030F                     	;# 
   222  0310                     	;# 
   223  0310                     	;# 
   224  0311                     	;# 
   225  0312                     	;# 
   226  0313                     	;# 
   227  0314                     	;# 
   228  0314                     	;# 
   229  0315                     	;# 
   230  0316                     	;# 
   231  0317                     	;# 
   232  0318                     	;# 
   233  0318                     	;# 
   234  0319                     	;# 
   235  031A                     	;# 
   236  031B                     	;# 
   237  031C                     	;# 
   238  031C                     	;# 
   239  031D                     	;# 
   240  031E                     	;# 
   241  031F                     	;# 
   242  038C                     	;# 
   243  038D                     	;# 
   244  038E                     	;# 
   245  0390                     	;# 
   246  0391                     	;# 
   247  0392                     	;# 
   248  040C                     	;# 
   249  040D                     	;# 
   250  040E                     	;# 
   251  040F                     	;# 
   252  0410                     	;# 
   253  0411                     	;# 
   254  0416                     	;# 
   255  0416                     	;# 
   256  0417                     	;# 
   257  0418                     	;# 
   258  0418                     	;# 
   259  0419                     	;# 
   260  041A                     	;# 
   261  041A                     	;# 
   262  041B                     	;# 
   263  041C                     	;# 
   264  041C                     	;# 
   265  041D                     	;# 
   266  041E                     	;# 
   267  041F                     	;# 
   268  048C                     	;# 
   269  048C                     	;# 
   270  048D                     	;# 
   271  048E                     	;# 
   272  048F                     	;# 
   273  048F                     	;# 
   274  0490                     	;# 
   275  0491                     	;# 
   276  0492                     	;# 
   277  0492                     	;# 
   278  0493                     	;# 
   279  0494                     	;# 
   280  0495                     	;# 
   281  0495                     	;# 
   282  0496                     	;# 
   283  0497                     	;# 
   284  0498                     	;# 
   285  0499                     	;# 
   286  049A                     	;# 
   287  049B                     	;# 
   288  049C                     	;# 
   289  049D                     	;# 
   290  050C                     	;# 
   291  050C                     	;# 
   292  050D                     	;# 
   293  050E                     	;# 
   294  050F                     	;# 
   295  050F                     	;# 
   296  0510                     	;# 
   297  0511                     	;# 
   298  0512                     	;# 
   299  0512                     	;# 
   300  0513                     	;# 
   301  0514                     	;# 
   302  0515                     	;# 
   303  0515                     	;# 
   304  0516                     	;# 
   305  0517                     	;# 
   306  0518                     	;# 
   307  0519                     	;# 
   308  051A                     	;# 
   309  051B                     	;# 
   310  051C                     	;# 
   311  051D                     	;# 
   312  058C                     	;# 
   313  058C                     	;# 
   314  058D                     	;# 
   315  058E                     	;# 
   316  058F                     	;# 
   317  058F                     	;# 
   318  0590                     	;# 
   319  0591                     	;# 
   320  0592                     	;# 
   321  0593                     	;# 
   322  060C                     	;# 
   323  060D                     	;# 
   324  060E                     	;# 
   325  060F                     	;# 
   326  0610                     	;# 
   327  0611                     	;# 
   328  0612                     	;# 
   329  0613                     	;# 
   330  0614                     	;# 
   331  0616                     	;# 
   332  0617                     	;# 
   333  0618                     	;# 
   334  0619                     	;# 
   335  061A                     	;# 
   336  061B                     	;# 
   337  061C                     	;# 
   338  061D                     	;# 
   339  061E                     	;# 
   340  068C                     	;# 
   341  068D                     	;# 
   342  068E                     	;# 
   343  068F                     	;# 
   344  0690                     	;# 
   345  0691                     	;# 
   346  0692                     	;# 
   347  0693                     	;# 
   348  0694                     	;# 
   349  070C                     	;# 
   350  070D                     	;# 
   351  070E                     	;# 
   352  070F                     	;# 
   353  0710                     	;# 
   354  0711                     	;# 
   355  0712                     	;# 
   356  0713                     	;# 
   357  0714                     	;# 
   358  0716                     	;# 
   359  0717                     	;# 
   360  0718                     	;# 
   361  0719                     	;# 
   362  071A                     	;# 
   363  071B                     	;# 
   364  071C                     	;# 
   365  071D                     	;# 
   366  071E                     	;# 
   367  0796                     	;# 
   368  0797                     	;# 
   369  0798                     	;# 
   370  0799                     	;# 
   371  079A                     	;# 
   372  079B                     	;# 
   373  080C                     	;# 
   374  080D                     	;# 
   375  080E                     	;# 
   376  080F                     	;# 
   377  0810                     	;# 
   378  0811                     	;# 
   379  0812                     	;# 
   380  0813                     	;# 
   381  0814                     	;# 
   382  081A                     	;# 
   383  081B                     	;# 
   384  081C                     	;# 
   385  081D                     	;# 
   386  081E                     	;# 
   387  081F                     	;# 
   388  088C                     	;# 
   389  088D                     	;# 
   390  088E                     	;# 
   391  088F                     	;# 
   392  0890                     	;# 
   393  0891                     	;# 
   394  0892                     	;# 
   395  0893                     	;# 
   396  0895                     	;# 
   397  0896                     	;# 
   398  0897                     	;# 
   399  0898                     	;# 
   400  0899                     	;# 
   401  089A                     	;# 
   402  089B                     	;# 
   403  090C                     	;# 
   404  090E                     	;# 
   405  090F                     	;# 
   406  091F                     	;# 
   407  091F                     	;# 
   408  098F                     	;# 
   409  098F                     	;# 
   410  0990                     	;# 
   411  0991                     	;# 
   412  0992                     	;# 
   413  0993                     	;# 
   414  0994                     	;# 
   415  0995                     	;# 
   416  0996                     	;# 
   417  0997                     	;# 
   418  0E0F                     	;# 
   419  0E10                     	;# 
   420  0E11                     	;# 
   421  0E12                     	;# 
   422  0E13                     	;# 
   423  0E14                     	;# 
   424  0E15                     	;# 
   425  0E16                     	;# 
   426  0E17                     	;# 
   427  0E18                     	;# 
   428  0E19                     	;# 
   429  0E1A                     	;# 
   430  0E1B                     	;# 
   431  0E1C                     	;# 
   432  0E1D                     	;# 
   433  0E1E                     	;# 
   434  0E1F                     	;# 
   435  0E20                     	;# 
   436  0E21                     	;# 
   437  0E22                     	;# 
   438  0E23                     	;# 
   439  0E24                     	;# 
   440  0E25                     	;# 
   441  0E26                     	;# 
   442  0E27                     	;# 
   443  0E28                     	;# 
   444  0E29                     	;# 
   445  0E2A                     	;# 
   446  0E2B                     	;# 
   447  0E2C                     	;# 
   448  0E2D                     	;# 
   449  0E2E                     	;# 
   450  0E2F                     	;# 
   451  0E30                     	;# 
   452  0E31                     	;# 
   453  0E32                     	;# 
   454  0E33                     	;# 
   455  0E34                     	;# 
   456  0E35                     	;# 
   457  0E36                     	;# 
   458  0E37                     	;# 
   459  0E8F                     	;# 
   460  0E90                     	;# 
   461  0E91                     	;# 
   462  0E92                     	;# 
   463  0E93                     	;# 
   464  0E94                     	;# 
   465  0E95                     	;# 
   466  0E96                     	;# 
   467  0E97                     	;# 
   468  0E9C                     	;# 
   469  0E9D                     	;# 
   470  0E9E                     	;# 
   471  0EA1                     	;# 
   472  0EA2                     	;# 
   473  0EA3                     	;# 
   474  0EA4                     	;# 
   475  0EA5                     	;# 
   476  0EA9                     	;# 
   477  0EAA                     	;# 
   478  0EAB                     	;# 
   479  0EAC                     	;# 
   480  0EB1                     	;# 
   481  0EB2                     	;# 
   482  0EB3                     	;# 
   483  0EB8                     	;# 
   484  0EB9                     	;# 
   485  0EBA                     	;# 
   486  0EBB                     	;# 
   487  0EBC                     	;# 
   488  0EBD                     	;# 
   489  0EBE                     	;# 
   490  0EC3                     	;# 
   491  0EC5                     	;# 
   492  0EC6                     	;# 
   493  0EC7                     	;# 
   494  0EC8                     	;# 
   495  0EC9                     	;# 
   496  0ECA                     	;# 
   497  0ECB                     	;# 
   498  0ECC                     	;# 
   499  0F10                     	;# 
   500  0F11                     	;# 
   501  0F12                     	;# 
   502  0F13                     	;# 
   503  0F14                     	;# 
   504  0F15                     	;# 
   505  0F16                     	;# 
   506  0F17                     	;# 
   507  0F18                     	;# 
   508  0F19                     	;# 
   509  0F1A                     	;# 
   510  0F1B                     	;# 
   511  0F1C                     	;# 
   512  0F1D                     	;# 
   513  0F1E                     	;# 
   514  0F1F                     	;# 
   515  0F20                     	;# 
   516  0F21                     	;# 
   517  0F22                     	;# 
   518  0F23                     	;# 
   519  0F24                     	;# 
   520  0F25                     	;# 
   521  0F26                     	;# 
   522  0F27                     	;# 
   523  0F38                     	;# 
   524  0F39                     	;# 
   525  0F3A                     	;# 
   526  0F3B                     	;# 
   527  0F3C                     	;# 
   528  0F3D                     	;# 
   529  0F3E                     	;# 
   530  0F3F                     	;# 
   531  0F40                     	;# 
   532  0F41                     	;# 
   533  0F43                     	;# 
   534  0F44                     	;# 
   535  0F45                     	;# 
   536  0F46                     	;# 
   537  0F47                     	;# 
   538  0F48                     	;# 
   539  0F49                     	;# 
   540  0F4A                     	;# 
   541  0F4B                     	;# 
   542  0F4C                     	;# 
   543  0F4E                     	;# 
   544  0F4F                     	;# 
   545  0F50                     	;# 
   546  0F51                     	;# 
   547  0F52                     	;# 
   548  0F53                     	;# 
   549  0F54                     	;# 
   550  0F55                     	;# 
   551  0F56                     	;# 
   552  0F57                     	;# 
   553  0F65                     	;# 
   554  0F68                     	;# 
   555  0F69                     	;# 
   556  0F6A                     	;# 
   557  0F6B                     	;# 
   558  0FE4                     	;# 
   559  0FE5                     	;# 
   560  0FE6                     	;# 
   561  0FE7                     	;# 
   562  0FE8                     	;# 
   563  0FE9                     	;# 
   564  0FEA                     	;# 
   565  0FEB                     	;# 
   566  0FED                     	;# 
   567  0FEE                     	;# 
   568  0FEF                     	;# 
   569  0000                     	;# 
   570  0001                     	;# 
   571  0002                     	;# 
   572  0003                     	;# 
   573  0004                     	;# 
   574  0005                     	;# 
   575  0006                     	;# 
   576  0007                     	;# 
   577  0008                     	;# 
   578  0009                     	;# 
   579  000A                     	;# 
   580  000B                     	;# 
   581  000C                     	;# 
   582  000D                     	;# 
   583  000E                     	;# 
   584  0010                     	;# 
   585  0011                     	;# 
   586  0012                     	;# 
   587  0013                     	;# 
   588  0016                     	;# 
   589  0017                     	;# 
   590  0018                     	;# 
   591  001C                     	;# 
   592  001C                     	;# 
   593  001D                     	;# 
   594  001D                     	;# 
   595  001E                     	;# 
   596  001F                     	;# 
   597  008C                     	;# 
   598  008C                     	;# 
   599  008D                     	;# 
   600  008E                     	;# 
   601  008E                     	;# 
   602  008F                     	;# 
   603  0090                     	;# 
   604  0090                     	;# 
   605  0091                     	;# 
   606  0093                     	;# 
   607  0094                     	;# 
   608  0095                     	;# 
   609  0096                     	;# 
   610  0097                     	;# 
   611  0098                     	;# 
   612  0099                     	;# 
   613  009A                     	;# 
   614  009B                     	;# 
   615  009C                     	;# 
   616  009D                     	;# 
   617  009E                     	;# 
   618  010C                     	;# 
   619  010D                     	;# 
   620  010E                     	;# 
   621  010E                     	;# 
   622  010F                     	;# 
   623  0110                     	;# 
   624  0110                     	;# 
   625  0111                     	;# 
   626  0112                     	;# 
   627  0112                     	;# 
   628  0113                     	;# 
   629  0114                     	;# 
   630  0114                     	;# 
   631  0115                     	;# 
   632  0116                     	;# 
   633  0116                     	;# 
   634  0117                     	;# 
   635  0119                     	;# 
   636  0119                     	;# 
   637  0119                     	;# 
   638  011A                     	;# 
   639  011A                     	;# 
   640  011A                     	;# 
   641  011B                     	;# 
   642  011B                     	;# 
   643  011B                     	;# 
   644  011B                     	;# 
   645  011B                     	;# 
   646  011C                     	;# 
   647  011C                     	;# 
   648  011C                     	;# 
   649  011D                     	;# 
   650  011D                     	;# 
   651  011D                     	;# 
   652  011E                     	;# 
   653  011E                     	;# 
   654  011E                     	;# 
   655  011F                     	;# 
   656  011F                     	;# 
   657  011F                     	;# 
   658  011F                     	;# 
   659  011F                     	;# 
   660  018C                     	;# 
   661  018D                     	;# 
   662  018E                     	;# 
   663  018F                     	;# 
   664  0190                     	;# 
   665  0191                     	;# 
   666  0192                     	;# 
   667  0196                     	;# 
   668  0197                     	;# 
   669  0198                     	;# 
   670  0199                     	;# 
   671  019A                     	;# 
   672  019B                     	;# 
   673  019C                     	;# 
   674  020C                     	;# 
   675  020C                     	;# 
   676  020D                     	;# 
   677  020E                     	;# 
   678  020F                     	;# 
   679  020F                     	;# 
   680  0210                     	;# 
   681  0210                     	;# 
   682  0211                     	;# 
   683  0211                     	;# 
   684  0212                     	;# 
   685  0212                     	;# 
   686  0213                     	;# 
   687  0214                     	;# 
   688  0215                     	;# 
   689  0215                     	;# 
   690  0216                     	;# 
   691  0216                     	;# 
   692  0217                     	;# 
   693  0217                     	;# 
   694  0218                     	;# 
   695  0218                     	;# 
   696  0219                     	;# 
   697  021A                     	;# 
   698  021B                     	;# 
   699  021B                     	;# 
   700  021C                     	;# 
   701  021C                     	;# 
   702  021D                     	;# 
   703  021D                     	;# 
   704  021E                     	;# 
   705  021F                     	;# 
   706  028C                     	;# 
   707  028C                     	;# 
   708  028D                     	;# 
   709  028D                     	;# 
   710  028E                     	;# 
   711  028F                     	;# 
   712  0290                     	;# 
   713  0290                     	;# 
   714  0291                     	;# 
   715  0292                     	;# 
   716  0292                     	;# 
   717  0293                     	;# 
   718  0293                     	;# 
   719  0294                     	;# 
   720  0295                     	;# 
   721  0296                     	;# 
   722  0296                     	;# 
   723  0297                     	;# 
   724  0298                     	;# 
   725  0298                     	;# 
   726  0299                     	;# 
   727  0299                     	;# 
   728  029A                     	;# 
   729  029B                     	;# 
   730  029C                     	;# 
   731  029C                     	;# 
   732  029D                     	;# 
   733  030C                     	;# 
   734  030C                     	;# 
   735  030D                     	;# 
   736  030E                     	;# 
   737  030F                     	;# 
   738  0310                     	;# 
   739  0310                     	;# 
   740  0311                     	;# 
   741  0312                     	;# 
   742  0313                     	;# 
   743  0314                     	;# 
   744  0314                     	;# 
   745  0315                     	;# 
   746  0316                     	;# 
   747  0317                     	;# 
   748  0318                     	;# 
   749  0318                     	;# 
   750  0319                     	;# 
   751  031A                     	;# 
   752  031B                     	;# 
   753  031C                     	;# 
   754  031C                     	;# 
   755  031D                     	;# 
   756  031E                     	;# 
   757  031F                     	;# 
   758  038C                     	;# 
   759  038D                     	;# 
   760  038E                     	;# 
   761  0390                     	;# 
   762  0391                     	;# 
   763  0392                     	;# 
   764  040C                     	;# 
   765  040D                     	;# 
   766  040E                     	;# 
   767  040F                     	;# 
   768  0410                     	;# 
   769  0411                     	;# 
   770  0416                     	;# 
   771  0416                     	;# 
   772  0417                     	;# 
   773  0418                     	;# 
   774  0418                     	;# 
   775  0419                     	;# 
   776  041A                     	;# 
   777  041A                     	;# 
   778  041B                     	;# 
   779  041C                     	;# 
   780  041C                     	;# 
   781  041D                     	;# 
   782  041E                     	;# 
   783  041F                     	;# 
   784  048C                     	;# 
   785  048C                     	;# 
   786  048D                     	;# 
   787  048E                     	;# 
   788  048F                     	;# 
   789  048F                     	;# 
   790  0490                     	;# 
   791  0491                     	;# 
   792  0492                     	;# 
   793  0492                     	;# 
   794  0493                     	;# 
   795  0494                     	;# 
   796  0495                     	;# 
   797  0495                     	;# 
   798  0496                     	;# 
   799  0497                     	;# 
   800  0498                     	;# 
   801  0499                     	;# 
   802  049A                     	;# 
   803  049B                     	;# 
   804  049C                     	;# 
   805  049D                     	;# 
   806  050C                     	;# 
   807  050C                     	;# 
   808  050D                     	;# 
   809  050E                     	;# 
   810  050F                     	;# 
   811  050F                     	;# 
   812  0510                     	;# 
   813  0511                     	;# 
   814  0512                     	;# 
   815  0512                     	;# 
   816  0513                     	;# 
   817  0514                     	;# 
   818  0515                     	;# 
   819  0515                     	;# 
   820  0516                     	;# 
   821  0517                     	;# 
   822  0518                     	;# 
   823  0519                     	;# 
   824  051A                     	;# 
   825  051B                     	;# 
   826  051C                     	;# 
   827  051D                     	;# 
   828  058C                     	;# 
   829  058C                     	;# 
   830  058D                     	;# 
   831  058E                     	;# 
   832  058F                     	;# 
   833  058F                     	;# 
   834  0590                     	;# 
   835  0591                     	;# 
   836  0592                     	;# 
   837  0593                     	;# 
   838  060C                     	;# 
   839  060D                     	;# 
   840  060E                     	;# 
   841  060F                     	;# 
   842  0610                     	;# 
   843  0611                     	;# 
   844  0612                     	;# 
   845  0613                     	;# 
   846  0614                     	;# 
   847  0616                     	;# 
   848  0617                     	;# 
   849  0618                     	;# 
   850  0619                     	;# 
   851  061A                     	;# 
   852  061B                     	;# 
   853  061C                     	;# 
   854  061D                     	;# 
   855  061E                     	;# 
   856  068C                     	;# 
   857  068D                     	;# 
   858  068E                     	;# 
   859  068F                     	;# 
   860  0690                     	;# 
   861  0691                     	;# 
   862  0692                     	;# 
   863  0693                     	;# 
   864  0694                     	;# 
   865  070C                     	;# 
   866  070D                     	;# 
   867  070E                     	;# 
   868  070F                     	;# 
   869  0710                     	;# 
   870  0711                     	;# 
   871  0712                     	;# 
   872  0713                     	;# 
   873  0714                     	;# 
   874  0716                     	;# 
   875  0717                     	;# 
   876  0718                     	;# 
   877  0719                     	;# 
   878  071A                     	;# 
   879  071B                     	;# 
   880  071C                     	;# 
   881  071D                     	;# 
   882  071E                     	;# 
   883  0796                     	;# 
   884  0797                     	;# 
   885  0798                     	;# 
   886  0799                     	;# 
   887  079A                     	;# 
   888  079B                     	;# 
   889  080C                     	;# 
   890  080D                     	;# 
   891  080E                     	;# 
   892  080F                     	;# 
   893  0810                     	;# 
   894  0811                     	;# 
   895  0812                     	;# 
   896  0813                     	;# 
   897  0814                     	;# 
   898  081A                     	;# 
   899  081B                     	;# 
   900  081C                     	;# 
   901  081D                     	;# 
   902  081E                     	;# 
   903  081F                     	;# 
   904  088C                     	;# 
   905  088D                     	;# 
   906  088E                     	;# 
   907  088F                     	;# 
   908  0890                     	;# 
   909  0891                     	;# 
   910  0892                     	;# 
   911  0893                     	;# 
   912  0895                     	;# 
   913  0896                     	;# 
   914  0897                     	;# 
   915  0898                     	;# 
   916  0899                     	;# 
   917  089A                     	;# 
   918  089B                     	;# 
   919  090C                     	;# 
   920  090E                     	;# 
   921  090F                     	;# 
   922  091F                     	;# 
   923  091F                     	;# 
   924  098F                     	;# 
   925  098F                     	;# 
   926  0990                     	;# 
   927  0991                     	;# 
   928  0992                     	;# 
   929  0993                     	;# 
   930  0994                     	;# 
   931  0995                     	;# 
   932  0996                     	;# 
   933  0997                     	;# 
   934  0E0F                     	;# 
   935  0E10                     	;# 
   936  0E11                     	;# 
   937  0E12                     	;# 
   938  0E13                     	;# 
   939  0E14                     	;# 
   940  0E15                     	;# 
   941  0E16                     	;# 
   942  0E17                     	;# 
   943  0E18                     	;# 
   944  0E19                     	;# 
   945  0E1A                     	;# 
   946  0E1B                     	;# 
   947  0E1C                     	;# 
   948  0E1D                     	;# 
   949  0E1E                     	;# 
   950  0E1F                     	;# 
   951  0E20                     	;# 
   952  0E21                     	;# 
   953  0E22                     	;# 
   954  0E23                     	;# 
   955  0E24                     	;# 
   956  0E25                     	;# 
   957  0E26                     	;# 
   958  0E27                     	;# 
   959  0E28                     	;# 
   960  0E29                     	;# 
   961  0E2A                     	;# 
   962  0E2B                     	;# 
   963  0E2C                     	;# 
   964  0E2D                     	;# 
   965  0E2E                     	;# 
   966  0E2F                     	;# 
   967  0E30                     	;# 
   968  0E31                     	;# 
   969  0E32                     	;# 
   970  0E33                     	;# 
   971  0E34                     	;# 
   972  0E35                     	;# 
   973  0E36                     	;# 
   974  0E37                     	;# 
   975  0E8F                     	;# 
   976  0E90                     	;# 
   977  0E91                     	;# 
   978  0E92                     	;# 
   979  0E93                     	;# 
   980  0E94                     	;# 
   981  0E95                     	;# 
   982  0E96                     	;# 
   983  0E97                     	;# 
   984  0E9C                     	;# 
   985  0E9D                     	;# 
   986  0E9E                     	;# 
   987  0EA1                     	;# 
   988  0EA2                     	;# 
   989  0EA3                     	;# 
   990  0EA4                     	;# 
   991  0EA5                     	;# 
   992  0EA9                     	;# 
   993  0EAA                     	;# 
   994  0EAB                     	;# 
   995  0EAC                     	;# 
   996  0EB1                     	;# 
   997  0EB2                     	;# 
   998  0EB3                     	;# 
   999  0EB8                     	;# 
  1000  0EB9                     	;# 
  1001  0EBA                     	;# 
  1002  0EBB                     	;# 
  1003  0EBC                     	;# 
  1004  0EBD                     	;# 
  1005  0EBE                     	;# 
  1006  0EC3                     	;# 
  1007  0EC5                     	;# 
  1008  0EC6                     	;# 
  1009  0EC7                     	;# 
  1010  0EC8                     	;# 
  1011  0EC9                     	;# 
  1012  0ECA                     	;# 
  1013  0ECB                     	;# 
  1014  0ECC                     	;# 
  1015  0F10                     	;# 
  1016  0F11                     	;# 
  1017  0F12                     	;# 
  1018  0F13                     	;# 
  1019  0F14                     	;# 
  1020  0F15                     	;# 
  1021  0F16                     	;# 
  1022  0F17                     	;# 
  1023  0F18                     	;# 
  1024  0F19                     	;# 
  1025  0F1A                     	;# 
  1026  0F1B                     	;# 
  1027  0F1C                     	;# 
  1028  0F1D                     	;# 
  1029  0F1E                     	;# 
  1030  0F1F                     	;# 
  1031  0F20                     	;# 
  1032  0F21                     	;# 
  1033  0F22                     	;# 
  1034  0F23                     	;# 
  1035  0F24                     	;# 
  1036  0F25                     	;# 
  1037  0F26                     	;# 
  1038  0F27                     	;# 
  1039  0F38                     	;# 
  1040  0F39                     	;# 
  1041  0F3A                     	;# 
  1042  0F3B                     	;# 
  1043  0F3C                     	;# 
  1044  0F3D                     	;# 
  1045  0F3E                     	;# 
  1046  0F3F                     	;# 
  1047  0F40                     	;# 
  1048  0F41                     	;# 
  1049  0F43                     	;# 
  1050  0F44                     	;# 
  1051  0F45                     	;# 
  1052  0F46                     	;# 
  1053  0F47                     	;# 
  1054  0F48                     	;# 
  1055  0F49                     	;# 
  1056  0F4A                     	;# 
  1057  0F4B                     	;# 
  1058  0F4C                     	;# 
  1059  0F4E                     	;# 
  1060  0F4F                     	;# 
  1061  0F50                     	;# 
  1062  0F51                     	;# 
  1063  0F52                     	;# 
  1064  0F53                     	;# 
  1065  0F54                     	;# 
  1066  0F55                     	;# 
  1067  0F56                     	;# 
  1068  0F57                     	;# 
  1069  0F65                     	;# 
  1070  0F68                     	;# 
  1071  0F69                     	;# 
  1072  0F6A                     	;# 
  1073  0F6B                     	;# 
  1074  0FE4                     	;# 
  1075  0FE5                     	;# 
  1076  0FE6                     	;# 
  1077  0FE7                     	;# 
  1078  0FE8                     	;# 
  1079  0FE9                     	;# 
  1080  0FEA                     	;# 
  1081  0FEB                     	;# 
  1082  0FED                     	;# 
  1083  0FEE                     	;# 
  1084  0FEF                     	;# 
  1085  0000                     	;# 
  1086  0001                     	;# 
  1087  0002                     	;# 
  1088  0003                     	;# 
  1089  0004                     	;# 
  1090  0005                     	;# 
  1091  0006                     	;# 
  1092  0007                     	;# 
  1093  0008                     	;# 
  1094  0009                     	;# 
  1095  000A                     	;# 
  1096  000B                     	;# 
  1097  000C                     	;# 
  1098  000D                     	;# 
  1099  000E                     	;# 
  1100  0010                     	;# 
  1101  0011                     	;# 
  1102  0012                     	;# 
  1103  0013                     	;# 
  1104  0016                     	;# 
  1105  0017                     	;# 
  1106  0018                     	;# 
  1107  001C                     	;# 
  1108  001C                     	;# 
  1109  001D                     	;# 
  1110  001D                     	;# 
  1111  001E                     	;# 
  1112  001F                     	;# 
  1113  008C                     	;# 
  1114  008C                     	;# 
  1115  008D                     	;# 
  1116  008E                     	;# 
  1117  008E                     	;# 
  1118  008F                     	;# 
  1119  0090                     	;# 
  1120  0090                     	;# 
  1121  0091                     	;# 
  1122  0093                     	;# 
  1123  0094                     	;# 
  1124  0095                     	;# 
  1125  0096                     	;# 
  1126  0097                     	;# 
  1127  0098                     	;# 
  1128  0099                     	;# 
  1129  009A                     	;# 
  1130  009B                     	;# 
  1131  009C                     	;# 
  1132  009D                     	;# 
  1133  009E                     	;# 
  1134  010C                     	;# 
  1135  010D                     	;# 
  1136  010E                     	;# 
  1137  010E                     	;# 
  1138  010F                     	;# 
  1139  0110                     	;# 
  1140  0110                     	;# 
  1141  0111                     	;# 
  1142  0112                     	;# 
  1143  0112                     	;# 
  1144  0113                     	;# 
  1145  0114                     	;# 
  1146  0114                     	;# 
  1147  0115                     	;# 
  1148  0116                     	;# 
  1149  0116                     	;# 
  1150  0117                     	;# 
  1151  0119                     	;# 
  1152  0119                     	;# 
  1153  0119                     	;# 
  1154  011A                     	;# 
  1155  011A                     	;# 
  1156  011A                     	;# 
  1157  011B                     	;# 
  1158  011B                     	;# 
  1159  011B                     	;# 
  1160  011B                     	;# 
  1161  011B                     	;# 
  1162  011C                     	;# 
  1163  011C                     	;# 
  1164  011C                     	;# 
  1165  011D                     	;# 
  1166  011D                     	;# 
  1167  011D                     	;# 
  1168  011E                     	;# 
  1169  011E                     	;# 
  1170  011E                     	;# 
  1171  011F                     	;# 
  1172  011F                     	;# 
  1173  011F                     	;# 
  1174  011F                     	;# 
  1175  011F                     	;# 
  1176  018C                     	;# 
  1177  018D                     	;# 
  1178  018E                     	;# 
  1179  018F                     	;# 
  1180  0190                     	;# 
  1181  0191                     	;# 
  1182  0192                     	;# 
  1183  0196                     	;# 
  1184  0197                     	;# 
  1185  0198                     	;# 
  1186  0199                     	;# 
  1187  019A                     	;# 
  1188  019B                     	;# 
  1189  019C                     	;# 
  1190  020C                     	;# 
  1191  020C                     	;# 
  1192  020D                     	;# 
  1193  020E                     	;# 
  1194  020F                     	;# 
  1195  020F                     	;# 
  1196  0210                     	;# 
  1197  0210                     	;# 
  1198  0211                     	;# 
  1199  0211                     	;# 
  1200  0212                     	;# 
  1201  0212                     	;# 
  1202  0213                     	;# 
  1203  0214                     	;# 
  1204  0215                     	;# 
  1205  0215                     	;# 
  1206  0216                     	;# 
  1207  0216                     	;# 
  1208  0217                     	;# 
  1209  0217                     	;# 
  1210  0218                     	;# 
  1211  0218                     	;# 
  1212  0219                     	;# 
  1213  021A                     	;# 
  1214  021B                     	;# 
  1215  021B                     	;# 
  1216  021C                     	;# 
  1217  021C                     	;# 
  1218  021D                     	;# 
  1219  021D                     	;# 
  1220  021E                     	;# 
  1221  021F                     	;# 
  1222  028C                     	;# 
  1223  028C                     	;# 
  1224  028D                     	;# 
  1225  028D                     	;# 
  1226  028E                     	;# 
  1227  028F                     	;# 
  1228  0290                     	;# 
  1229  0290                     	;# 
  1230  0291                     	;# 
  1231  0292                     	;# 
  1232  0292                     	;# 
  1233  0293                     	;# 
  1234  0293                     	;# 
  1235  0294                     	;# 
  1236  0295                     	;# 
  1237  0296                     	;# 
  1238  0296                     	;# 
  1239  0297                     	;# 
  1240  0298                     	;# 
  1241  0298                     	;# 
  1242  0299                     	;# 
  1243  0299                     	;# 
  1244  029A                     	;# 
  1245  029B                     	;# 
  1246  029C                     	;# 
  1247  029C                     	;# 
  1248  029D                     	;# 
  1249  030C                     	;# 
  1250  030C                     	;# 
  1251  030D                     	;# 
  1252  030E                     	;# 
  1253  030F                     	;# 
  1254  0310                     	;# 
  1255  0310                     	;# 
  1256  0311                     	;# 
  1257  0312                     	;# 
  1258  0313                     	;# 
  1259  0314                     	;# 
  1260  0314                     	;# 
  1261  0315                     	;# 
  1262  0316                     	;# 
  1263  0317                     	;# 
  1264  0318                     	;# 
  1265  0318                     	;# 
  1266  0319                     	;# 
  1267  031A                     	;# 
  1268  031B                     	;# 
  1269  031C                     	;# 
  1270  031C                     	;# 
  1271  031D                     	;# 
  1272  031E                     	;# 
  1273  031F                     	;# 
  1274  038C                     	;# 
  1275  038D                     	;# 
  1276  038E                     	;# 
  1277  0390                     	;# 
  1278  0391                     	;# 
  1279  0392                     	;# 
  1280  040C                     	;# 
  1281  040D                     	;# 
  1282  040E                     	;# 
  1283  040F                     	;# 
  1284  0410                     	;# 
  1285  0411                     	;# 
  1286  0416                     	;# 
  1287  0416                     	;# 
  1288  0417                     	;# 
  1289  0418                     	;# 
  1290  0418                     	;# 
  1291  0419                     	;# 
  1292  041A                     	;# 
  1293  041A                     	;# 
  1294  041B                     	;# 
  1295  041C                     	;# 
  1296  041C                     	;# 
  1297  041D                     	;# 
  1298  041E                     	;# 
  1299  041F                     	;# 
  1300  048C                     	;# 
  1301  048C                     	;# 
  1302  048D                     	;# 
  1303  048E                     	;# 
  1304  048F                     	;# 
  1305  048F                     	;# 
  1306  0490                     	;# 
  1307  0491                     	;# 
  1308  0492                     	;# 
  1309  0492                     	;# 
  1310  0493                     	;# 
  1311  0494                     	;# 
  1312  0495                     	;# 
  1313  0495                     	;# 
  1314  0496                     	;# 
  1315  0497                     	;# 
  1316  0498                     	;# 
  1317  0499                     	;# 
  1318  049A                     	;# 
  1319  049B                     	;# 
  1320  049C                     	;# 
  1321  049D                     	;# 
  1322  050C                     	;# 
  1323  050C                     	;# 
  1324  050D                     	;# 
  1325  050E                     	;# 
  1326  050F                     	;# 
  1327  050F                     	;# 
  1328  0510                     	;# 
  1329  0511                     	;# 
  1330  0512                     	;# 
  1331  0512                     	;# 
  1332  0513                     	;# 
  1333  0514                     	;# 
  1334  0515                     	;# 
  1335  0515                     	;# 
  1336  0516                     	;# 
  1337  0517                     	;# 
  1338  0518                     	;# 
  1339  0519                     	;# 
  1340  051A                     	;# 
  1341  051B                     	;# 
  1342  051C                     	;# 
  1343  051D                     	;# 
  1344  058C                     	;# 
  1345  058C                     	;# 
  1346  058D                     	;# 
  1347  058E                     	;# 
  1348  058F                     	;# 
  1349  058F                     	;# 
  1350  0590                     	;# 
  1351  0591                     	;# 
  1352  0592                     	;# 
  1353  0593                     	;# 
  1354  060C                     	;# 
  1355  060D                     	;# 
  1356  060E                     	;# 
  1357  060F                     	;# 
  1358  0610                     	;# 
  1359  0611                     	;# 
  1360  0612                     	;# 
  1361  0613                     	;# 
  1362  0614                     	;# 
  1363  0616                     	;# 
  1364  0617                     	;# 
  1365  0618                     	;# 
  1366  0619                     	;# 
  1367  061A                     	;# 
  1368  061B                     	;# 
  1369  061C                     	;# 
  1370  061D                     	;# 
  1371  061E                     	;# 
  1372  068C                     	;# 
  1373  068D                     	;# 
  1374  068E                     	;# 
  1375  068F                     	;# 
  1376  0690                     	;# 
  1377  0691                     	;# 
  1378  0692                     	;# 
  1379  0693                     	;# 
  1380  0694                     	;# 
  1381  070C                     	;# 
  1382  070D                     	;# 
  1383  070E                     	;# 
  1384  070F                     	;# 
  1385  0710                     	;# 
  1386  0711                     	;# 
  1387  0712                     	;# 
  1388  0713                     	;# 
  1389  0714                     	;# 
  1390  0716                     	;# 
  1391  0717                     	;# 
  1392  0718                     	;# 
  1393  0719                     	;# 
  1394  071A                     	;# 
  1395  071B                     	;# 
  1396  071C                     	;# 
  1397  071D                     	;# 
  1398  071E                     	;# 
  1399  0796                     	;# 
  1400  0797                     	;# 
  1401  0798                     	;# 
  1402  0799                     	;# 
  1403  079A                     	;# 
  1404  079B                     	;# 
  1405  080C                     	;# 
  1406  080D                     	;# 
  1407  080E                     	;# 
  1408  080F                     	;# 
  1409  0810                     	;# 
  1410  0811                     	;# 
  1411  0812                     	;# 
  1412  0813                     	;# 
  1413  0814                     	;# 
  1414  081A                     	;# 
  1415  081B                     	;# 
  1416  081C                     	;# 
  1417  081D                     	;# 
  1418  081E                     	;# 
  1419  081F                     	;# 
  1420  088C                     	;# 
  1421  088D                     	;# 
  1422  088E                     	;# 
  1423  088F                     	;# 
  1424  0890                     	;# 
  1425  0891                     	;# 
  1426  0892                     	;# 
  1427  0893                     	;# 
  1428  0895                     	;# 
  1429  0896                     	;# 
  1430  0897                     	;# 
  1431  0898                     	;# 
  1432  0899                     	;# 
  1433  089A                     	;# 
  1434  089B                     	;# 
  1435  090C                     	;# 
  1436  090E                     	;# 
  1437  090F                     	;# 
  1438  091F                     	;# 
  1439  091F                     	;# 
  1440  098F                     	;# 
  1441  098F                     	;# 
  1442  0990                     	;# 
  1443  0991                     	;# 
  1444  0992                     	;# 
  1445  0993                     	;# 
  1446  0994                     	;# 
  1447  0995                     	;# 
  1448  0996                     	;# 
  1449  0997                     	;# 
  1450  0E0F                     	;# 
  1451  0E10                     	;# 
  1452  0E11                     	;# 
  1453  0E12                     	;# 
  1454  0E13                     	;# 
  1455  0E14                     	;# 
  1456  0E15                     	;# 
  1457  0E16                     	;# 
  1458  0E17                     	;# 
  1459  0E18                     	;# 
  1460  0E19                     	;# 
  1461  0E1A                     	;# 
  1462  0E1B                     	;# 
  1463  0E1C                     	;# 
  1464  0E1D                     	;# 
  1465  0E1E                     	;# 
  1466  0E1F                     	;# 
  1467  0E20                     	;# 
  1468  0E21                     	;# 
  1469  0E22                     	;# 
  1470  0E23                     	;# 
  1471  0E24                     	;# 
  1472  0E25                     	;# 
  1473  0E26                     	;# 
  1474  0E27                     	;# 
  1475  0E28                     	;# 
  1476  0E29                     	;# 
  1477  0E2A                     	;# 
  1478  0E2B                     	;# 
  1479  0E2C                     	;# 
  1480  0E2D                     	;# 
  1481  0E2E                     	;# 
  1482  0E2F                     	;# 
  1483  0E30                     	;# 
  1484  0E31                     	;# 
  1485  0E32                     	;# 
  1486  0E33                     	;# 
  1487  0E34                     	;# 
  1488  0E35                     	;# 
  1489  0E36                     	;# 
  1490  0E37                     	;# 
  1491  0E8F                     	;# 
  1492  0E90                     	;# 
  1493  0E91                     	;# 
  1494  0E92                     	;# 
  1495  0E93                     	;# 
  1496  0E94                     	;# 
  1497  0E95                     	;# 
  1498  0E96                     	;# 
  1499  0E97                     	;# 
  1500  0E9C                     	;# 
  1501  0E9D                     	;# 
  1502  0E9E                     	;# 
  1503  0EA1                     	;# 
  1504  0EA2                     	;# 
  1505  0EA3                     	;# 
  1506  0EA4                     	;# 
  1507  0EA5                     	;# 
  1508  0EA9                     	;# 
  1509  0EAA                     	;# 
  1510  0EAB                     	;# 
  1511  0EAC                     	;# 
  1512  0EB1                     	;# 
  1513  0EB2                     	;# 
  1514  0EB3                     	;# 
  1515  0EB8                     	;# 
  1516  0EB9                     	;# 
  1517  0EBA                     	;# 
  1518  0EBB                     	;# 
  1519  0EBC                     	;# 
  1520  0EBD                     	;# 
  1521  0EBE                     	;# 
  1522  0EC3                     	;# 
  1523  0EC5                     	;# 
  1524  0EC6                     	;# 
  1525  0EC7                     	;# 
  1526  0EC8                     	;# 
  1527  0EC9                     	;# 
  1528  0ECA                     	;# 
  1529  0ECB                     	;# 
  1530  0ECC                     	;# 
  1531  0F10                     	;# 
  1532  0F11                     	;# 
  1533  0F12                     	;# 
  1534  0F13                     	;# 
  1535  0F14                     	;# 
  1536  0F15                     	;# 
  1537  0F16                     	;# 
  1538  0F17                     	;# 
  1539  0F18                     	;# 
  1540  0F19                     	;# 
  1541  0F1A                     	;# 
  1542  0F1B                     	;# 
  1543  0F1C                     	;# 
  1544  0F1D                     	;# 
  1545  0F1E                     	;# 
  1546  0F1F                     	;# 
  1547  0F20                     	;# 
  1548  0F21                     	;# 
  1549  0F22                     	;# 
  1550  0F23                     	;# 
  1551  0F24                     	;# 
  1552  0F25                     	;# 
  1553  0F26                     	;# 
  1554  0F27                     	;# 
  1555  0F38                     	;# 
  1556  0F39                     	;# 
  1557  0F3A                     	;# 
  1558  0F3B                     	;# 
  1559  0F3C                     	;# 
  1560  0F3D                     	;# 
  1561  0F3E                     	;# 
  1562  0F3F                     	;# 
  1563  0F40                     	;# 
  1564  0F41                     	;# 
  1565  0F43                     	;# 
  1566  0F44                     	;# 
  1567  0F45                     	;# 
  1568  0F46                     	;# 
  1569  0F47                     	;# 
  1570  0F48                     	;# 
  1571  0F49                     	;# 
  1572  0F4A                     	;# 
  1573  0F4B                     	;# 
  1574  0F4C                     	;# 
  1575  0F4E                     	;# 
  1576  0F4F                     	;# 
  1577  0F50                     	;# 
  1578  0F51                     	;# 
  1579  0F52                     	;# 
  1580  0F53                     	;# 
  1581  0F54                     	;# 
  1582  0F55                     	;# 
  1583  0F56                     	;# 
  1584  0F57                     	;# 
  1585  0F65                     	;# 
  1586  0F68                     	;# 
  1587  0F69                     	;# 
  1588  0F6A                     	;# 
  1589  0F6B                     	;# 
  1590  0FE4                     	;# 
  1591  0FE5                     	;# 
  1592  0FE6                     	;# 
  1593  0FE7                     	;# 
  1594  0FE8                     	;# 
  1595  0FE9                     	;# 
  1596  0FEA                     	;# 
  1597  0FEB                     	;# 
  1598  0FED                     	;# 
  1599  0FEE                     	;# 
  1600  0FEF                     	;# 
  1601  0000                     	;# 
  1602  0001                     	;# 
  1603  0002                     	;# 
  1604  0003                     	;# 
  1605  0004                     	;# 
  1606  0005                     	;# 
  1607  0006                     	;# 
  1608  0007                     	;# 
  1609  0008                     	;# 
  1610  0009                     	;# 
  1611  000A                     	;# 
  1612  000B                     	;# 
  1613  000C                     	;# 
  1614  000D                     	;# 
  1615  000E                     	;# 
  1616  0010                     	;# 
  1617  0011                     	;# 
  1618  0012                     	;# 
  1619  0013                     	;# 
  1620  0016                     	;# 
  1621  0017                     	;# 
  1622  0018                     	;# 
  1623  001C                     	;# 
  1624  001C                     	;# 
  1625  001D                     	;# 
  1626  001D                     	;# 
  1627  001E                     	;# 
  1628  001F                     	;# 
  1629  008C                     	;# 
  1630  008C                     	;# 
  1631  008D                     	;# 
  1632  008E                     	;# 
  1633  008E                     	;# 
  1634  008F                     	;# 
  1635  0090                     	;# 
  1636  0090                     	;# 
  1637  0091                     	;# 
  1638  0093                     	;# 
  1639  0094                     	;# 
  1640  0095                     	;# 
  1641  0096                     	;# 
  1642  0097                     	;# 
  1643  0098                     	;# 
  1644  0099                     	;# 
  1645  009A                     	;# 
  1646  009B                     	;# 
  1647  009C                     	;# 
  1648  009D                     	;# 
  1649  009E                     	;# 
  1650  010C                     	;# 
  1651  010D                     	;# 
  1652  010E                     	;# 
  1653  010E                     	;# 
  1654  010F                     	;# 
  1655  0110                     	;# 
  1656  0110                     	;# 
  1657  0111                     	;# 
  1658  0112                     	;# 
  1659  0112                     	;# 
  1660  0113                     	;# 
  1661  0114                     	;# 
  1662  0114                     	;# 
  1663  0115                     	;# 
  1664  0116                     	;# 
  1665  0116                     	;# 
  1666  0117                     	;# 
  1667  0119                     	;# 
  1668  0119                     	;# 
  1669  0119                     	;# 
  1670  011A                     	;# 
  1671  011A                     	;# 
  1672  011A                     	;# 
  1673  011B                     	;# 
  1674  011B                     	;# 
  1675  011B                     	;# 
  1676  011B                     	;# 
  1677  011B                     	;# 
  1678  011C                     	;# 
  1679  011C                     	;# 
  1680  011C                     	;# 
  1681  011D                     	;# 
  1682  011D                     	;# 
  1683  011D                     	;# 
  1684  011E                     	;# 
  1685  011E                     	;# 
  1686  011E                     	;# 
  1687  011F                     	;# 
  1688  011F                     	;# 
  1689  011F                     	;# 
  1690  011F                     	;# 
  1691  011F                     	;# 
  1692  018C                     	;# 
  1693  018D                     	;# 
  1694  018E                     	;# 
  1695  018F                     	;# 
  1696  0190                     	;# 
  1697  0191                     	;# 
  1698  0192                     	;# 
  1699  0196                     	;# 
  1700  0197                     	;# 
  1701  0198                     	;# 
  1702  0199                     	;# 
  1703  019A                     	;# 
  1704  019B                     	;# 
  1705  019C                     	;# 
  1706  020C                     	;# 
  1707  020C                     	;# 
  1708  020D                     	;# 
  1709  020E                     	;# 
  1710  020F                     	;# 
  1711  020F                     	;# 
  1712  0210                     	;# 
  1713  0210                     	;# 
  1714  0211                     	;# 
  1715  0211                     	;# 
  1716  0212                     	;# 
  1717  0212                     	;# 
  1718  0213                     	;# 
  1719  0214                     	;# 
  1720  0215                     	;# 
  1721  0215                     	;# 
  1722  0216                     	;# 
  1723  0216                     	;# 
  1724  0217                     	;# 
  1725  0217                     	;# 
  1726  0218                     	;# 
  1727  0218                     	;# 
  1728  0219                     	;# 
  1729  021A                     	;# 
  1730  021B                     	;# 
  1731  021B                     	;# 
  1732  021C                     	;# 
  1733  021C                     	;# 
  1734  021D                     	;# 
  1735  021D                     	;# 
  1736  021E                     	;# 
  1737  021F                     	;# 
  1738  028C                     	;# 
  1739  028C                     	;# 
  1740  028D                     	;# 
  1741  028D                     	;# 
  1742  028E                     	;# 
  1743  028F                     	;# 
  1744  0290                     	;# 
  1745  0290                     	;# 
  1746  0291                     	;# 
  1747  0292                     	;# 
  1748  0292                     	;# 
  1749  0293                     	;# 
  1750  0293                     	;# 
  1751  0294                     	;# 
  1752  0295                     	;# 
  1753  0296                     	;# 
  1754  0296                     	;# 
  1755  0297                     	;# 
  1756  0298                     	;# 
  1757  0298                     	;# 
  1758  0299                     	;# 
  1759  0299                     	;# 
  1760  029A                     	;# 
  1761  029B                     	;# 
  1762  029C                     	;# 
  1763  029C                     	;# 
  1764  029D                     	;# 
  1765  030C                     	;# 
  1766  030C                     	;# 
  1767  030D                     	;# 
  1768  030E                     	;# 
  1769  030F                     	;# 
  1770  0310                     	;# 
  1771  0310                     	;# 
  1772  0311                     	;# 
  1773  0312                     	;# 
  1774  0313                     	;# 
  1775  0314                     	;# 
  1776  0314                     	;# 
  1777  0315                     	;# 
  1778  0316                     	;# 
  1779  0317                     	;# 
  1780  0318                     	;# 
  1781  0318                     	;# 
  1782  0319                     	;# 
  1783  031A                     	;# 
  1784  031B                     	;# 
  1785  031C                     	;# 
  1786  031C                     	;# 
  1787  031D                     	;# 
  1788  031E                     	;# 
  1789  031F                     	;# 
  1790  038C                     	;# 
  1791  038D                     	;# 
  1792  038E                     	;# 
  1793  0390                     	;# 
  1794  0391                     	;# 
  1795  0392                     	;# 
  1796  040C                     	;# 
  1797  040D                     	;# 
  1798  040E                     	;# 
  1799  040F                     	;# 
  1800  0410                     	;# 
  1801  0411                     	;# 
  1802  0416                     	;# 
  1803  0416                     	;# 
  1804  0417                     	;# 
  1805  0418                     	;# 
  1806  0418                     	;# 
  1807  0419                     	;# 
  1808  041A                     	;# 
  1809  041A                     	;# 
  1810  041B                     	;# 
  1811  041C                     	;# 
  1812  041C                     	;# 
  1813  041D                     	;# 
  1814  041E                     	;# 
  1815  041F                     	;# 
  1816  048C                     	;# 
  1817  048C                     	;# 
  1818  048D                     	;# 
  1819  048E                     	;# 
  1820  048F                     	;# 
  1821  048F                     	;# 
  1822  0490                     	;# 
  1823  0491                     	;# 
  1824  0492                     	;# 
  1825  0492                     	;# 
  1826  0493                     	;# 
  1827  0494                     	;# 
  1828  0495                     	;# 
  1829  0495                     	;# 
  1830  0496                     	;# 
  1831  0497                     	;# 
  1832  0498                     	;# 
  1833  0499                     	;# 
  1834  049A                     	;# 
  1835  049B                     	;# 
  1836  049C                     	;# 
  1837  049D                     	;# 
  1838  050C                     	;# 
  1839  050C                     	;# 
  1840  050D                     	;# 
  1841  050E                     	;# 
  1842  050F                     	;# 
  1843  050F                     	;# 
  1844  0510                     	;# 
  1845  0511                     	;# 
  1846  0512                     	;# 
  1847  0512                     	;# 
  1848  0513                     	;# 
  1849  0514                     	;# 
  1850  0515                     	;# 
  1851  0515                     	;# 
  1852  0516                     	;# 
  1853  0517                     	;# 
  1854  0518                     	;# 
  1855  0519                     	;# 
  1856  051A                     	;# 
  1857  051B                     	;# 
  1858  051C                     	;# 
  1859  051D                     	;# 
  1860  058C                     	;# 
  1861  058C                     	;# 
  1862  058D                     	;# 
  1863  058E                     	;# 
  1864  058F                     	;# 
  1865  058F                     	;# 
  1866  0590                     	;# 
  1867  0591                     	;# 
  1868  0592                     	;# 
  1869  0593                     	;# 
  1870  060C                     	;# 
  1871  060D                     	;# 
  1872  060E                     	;# 
  1873  060F                     	;# 
  1874  0610                     	;# 
  1875  0611                     	;# 
  1876  0612                     	;# 
  1877  0613                     	;# 
  1878  0614                     	;# 
  1879  0616                     	;# 
  1880  0617                     	;# 
  1881  0618                     	;# 
  1882  0619                     	;# 
  1883  061A                     	;# 
  1884  061B                     	;# 
  1885  061C                     	;# 
  1886  061D                     	;# 
  1887  061E                     	;# 
  1888  068C                     	;# 
  1889  068D                     	;# 
  1890  068E                     	;# 
  1891  068F                     	;# 
  1892  0690                     	;# 
  1893  0691                     	;# 
  1894  0692                     	;# 
  1895  0693                     	;# 
  1896  0694                     	;# 
  1897  070C                     	;# 
  1898  070D                     	;# 
  1899  070E                     	;# 
  1900  070F                     	;# 
  1901  0710                     	;# 
  1902  0711                     	;# 
  1903  0712                     	;# 
  1904  0713                     	;# 
  1905  0714                     	;# 
  1906  0716                     	;# 
  1907  0717                     	;# 
  1908  0718                     	;# 
  1909  0719                     	;# 
  1910  071A                     	;# 
  1911  071B                     	;# 
  1912  071C                     	;# 
  1913  071D                     	;# 
  1914  071E                     	;# 
  1915  0796                     	;# 
  1916  0797                     	;# 
  1917  0798                     	;# 
  1918  0799                     	;# 
  1919  079A                     	;# 
  1920  079B                     	;# 
  1921  080C                     	;# 
  1922  080D                     	;# 
  1923  080E                     	;# 
  1924  080F                     	;# 
  1925  0810                     	;# 
  1926  0811                     	;# 
  1927  0812                     	;# 
  1928  0813                     	;# 
  1929  0814                     	;# 
  1930  081A                     	;# 
  1931  081B                     	;# 
  1932  081C                     	;# 
  1933  081D                     	;# 
  1934  081E                     	;# 
  1935  081F                     	;# 
  1936  088C                     	;# 
  1937  088D                     	;# 
  1938  088E                     	;# 
  1939  088F                     	;# 
  1940  0890                     	;# 
  1941  0891                     	;# 
  1942  0892                     	;# 
  1943  0893                     	;# 
  1944  0895                     	;# 
  1945  0896                     	;# 
  1946  0897                     	;# 
  1947  0898                     	;# 
  1948  0899                     	;# 
  1949  089A                     	;# 
  1950  089B                     	;# 
  1951  090C                     	;# 
  1952  090E                     	;# 
  1953  090F                     	;# 
  1954  091F                     	;# 
  1955  091F                     	;# 
  1956  098F                     	;# 
  1957  098F                     	;# 
  1958  0990                     	;# 
  1959  0991                     	;# 
  1960  0992                     	;# 
  1961  0993                     	;# 
  1962  0994                     	;# 
  1963  0995                     	;# 
  1964  0996                     	;# 
  1965  0997                     	;# 
  1966  0E0F                     	;# 
  1967  0E10                     	;# 
  1968  0E11                     	;# 
  1969  0E12                     	;# 
  1970  0E13                     	;# 
  1971  0E14                     	;# 
  1972  0E15                     	;# 
  1973  0E16                     	;# 
  1974  0E17                     	;# 
  1975  0E18                     	;# 
  1976  0E19                     	;# 
  1977  0E1A                     	;# 
  1978  0E1B                     	;# 
  1979  0E1C                     	;# 
  1980  0E1D                     	;# 
  1981  0E1E                     	;# 
  1982  0E1F                     	;# 
  1983  0E20                     	;# 
  1984  0E21                     	;# 
  1985  0E22                     	;# 
  1986  0E23                     	;# 
  1987  0E24                     	;# 
  1988  0E25                     	;# 
  1989  0E26                     	;# 
  1990  0E27                     	;# 
  1991  0E28                     	;# 
  1992  0E29                     	;# 
  1993  0E2A                     	;# 
  1994  0E2B                     	;# 
  1995  0E2C                     	;# 
  1996  0E2D                     	;# 
  1997  0E2E                     	;# 
  1998  0E2F                     	;# 
  1999  0E30                     	;# 
  2000  0E31                     	;# 
  2001  0E32                     	;# 
  2002  0E33                     	;# 
  2003  0E34                     	;# 
  2004  0E35                     	;# 
  2005  0E36                     	;# 
  2006  0E37                     	;# 
  2007  0E8F                     	;# 
  2008  0E90                     	;# 
  2009  0E91                     	;# 
  2010  0E92                     	;# 
  2011  0E93                     	;# 
  2012  0E94                     	;# 
  2013  0E95                     	;# 
  2014  0E96                     	;# 
  2015  0E97                     	;# 
  2016  0E9C                     	;# 
  2017  0E9D                     	;# 
  2018  0E9E                     	;# 
  2019  0EA1                     	;# 
  2020  0EA2                     	;# 
  2021  0EA3                     	;# 
  2022  0EA4                     	;# 
  2023  0EA5                     	;# 
  2024  0EA9                     	;# 
  2025  0EAA                     	;# 
  2026  0EAB                     	;# 
  2027  0EAC                     	;# 
  2028  0EB1                     	;# 
  2029  0EB2                     	;# 
  2030  0EB3                     	;# 
  2031  0EB8                     	;# 
  2032  0EB9                     	;# 
  2033  0EBA                     	;# 
  2034  0EBB                     	;# 
  2035  0EBC                     	;# 
  2036  0EBD                     	;# 
  2037  0EBE                     	;# 
  2038  0EC3                     	;# 
  2039  0EC5                     	;# 
  2040  0EC6                     	;# 
  2041  0EC7                     	;# 
  2042  0EC8                     	;# 
  2043  0EC9                     	;# 
  2044  0ECA                     	;# 
  2045  0ECB                     	;# 
  2046  0ECC                     	;# 
  2047  0F10                     	;# 
  2048  0F11                     	;# 
  2049  0F12                     	;# 
  2050  0F13                     	;# 
  2051  0F14                     	;# 
  2052  0F15                     	;# 
  2053  0F16                     	;# 
  2054  0F17                     	;# 
  2055  0F18                     	;# 
  2056  0F19                     	;# 
  2057  0F1A                     	;# 
  2058  0F1B                     	;# 
  2059  0F1C                     	;# 
  2060  0F1D                     	;# 
  2061  0F1E                     	;# 
  2062  0F1F                     	;# 
  2063  0F20                     	;# 
  2064  0F21                     	;# 
  2065  0F22                     	;# 
  2066  0F23                     	;# 
  2067  0F24                     	;# 
  2068  0F25                     	;# 
  2069  0F26                     	;# 
  2070  0F27                     	;# 
  2071  0F38                     	;# 
  2072  0F39                     	;# 
  2073  0F3A                     	;# 
  2074  0F3B                     	;# 
  2075  0F3C                     	;# 
  2076  0F3D                     	;# 
  2077  0F3E                     	;# 
  2078  0F3F                     	;# 
  2079  0F40                     	;# 
  2080  0F41                     	;# 
  2081  0F43                     	;# 
  2082  0F44                     	;# 
  2083  0F45                     	;# 
  2084  0F46                     	;# 
  2085  0F47                     	;# 
  2086  0F48                     	;# 
  2087  0F49                     	;# 
  2088  0F4A                     	;# 
  2089  0F4B                     	;# 
  2090  0F4C                     	;# 
  2091  0F4E                     	;# 
  2092  0F4F                     	;# 
  2093  0F50                     	;# 
  2094  0F51                     	;# 
  2095  0F52                     	;# 
  2096  0F53                     	;# 
  2097  0F54                     	;# 
  2098  0F55                     	;# 
  2099  0F56                     	;# 
  2100  0F57                     	;# 
  2101  0F65                     	;# 
  2102  0F68                     	;# 
  2103  0F69                     	;# 
  2104  0F6A                     	;# 
  2105  0F6B                     	;# 
  2106  0FE4                     	;# 
  2107  0FE5                     	;# 
  2108  0FE6                     	;# 
  2109  0FE7                     	;# 
  2110  0FE8                     	;# 
  2111  0FE9                     	;# 
  2112  0FEA                     	;# 
  2113  0FEB                     	;# 
  2114  0FED                     	;# 
  2115  0FEE                     	;# 
  2116  0FEF                     	;# 
  2117  0016                     _LATAbits	set	22
  2118  0013                     _TRISC	set	19
  2119  0012                     _TRISB	set	18
  2120  0011                     _TRISA	set	17
  2121  0018                     _LATC	set	24
  2122  0017                     _LATB	set	23
  2123  0016                     _LATA	set	22
  2124  005F                     _GIE	set	95
  2125  011A                     _TX1REG	set	282
  2126  0119                     _RC1REG	set	281
  2127  011D                     _RC1STAbits	set	285
  2128  011C                     _SP1BRGH	set	284
  2129  011B                     _SP1BRGL	set	283
  2130  011E                     _TX1STA	set	286
  2131  011D                     _RC1STA	set	285
  2132  011F                     _BAUD1CON	set	287
  2133  070F                     _PIR3bits	set	1807
  2134  0892                     _OSCTUNE	set	2194
  2135  0893                     _OSCFRQ	set	2195
  2136  0891                     _OSCEN	set	2193
  2137  088F                     _OSCCON3	set	2191
  2138  088D                     _OSCCON1	set	2189
  2139  0ECB                     _RXPPSbits	set	3787
  2140  0E8F                     _PPSLOCKbits	set	3727
  2141  0E8F                     _PPSLOCK	set	3727
  2142  0F20                     _RC0PPS	set	3872
  2143  0F50                     _ODCONC	set	3920
  2144  0F45                     _ODCONB	set	3909
  2145  0F3A                     _ODCONA	set	3898
  2146  0F4F                     _WPUC	set	3919
  2147  0F39                     _WPUA	set	3897
  2148  0F44                     _WPUB	set	3908
  2149  0F65                     _WPUE	set	3941
  2150  0F38                     _ANSELA	set	3896
  2151  0F43                     _ANSELB	set	3907
  2152  0F4E                     _ANSELC	set	3918
  2153                           
  2154                           	psect	stringtext
  2155  0800                     __pstringtext:	
  2156  0800                     STR_5:	
  2157  0800  340A               	retlw	10
  2158  0801  3454               	retlw	84	;'T'
  2159  0802  3479               	retlw	121	;'y'
  2160  0803  3470               	retlw	112	;'p'
  2161  0804  3465               	retlw	101	;'e'
  2162  0805  3420               	retlw	32	;' '
  2163  0806  3431               	retlw	49	;'1'
  2164  0807  342C               	retlw	44	;','
  2165  0808  3432               	retlw	50	;'2'
  2166  0809  342C               	retlw	44	;','
  2167  080A  3433               	retlw	51	;'3'
  2168  080B  342C               	retlw	44	;','
  2169  080C  3420               	retlw	32	;' '
  2170  080D  346F               	retlw	111	;'o'
  2171  080E  3472               	retlw	114	;'r'
  2172  080F  3420               	retlw	32	;' '
  2173  0810  3434               	retlw	52	;'4'
  2174  0811  3420               	retlw	32	;' '
  2175  0812  3474               	retlw	116	;'t'
  2176  0813  346F               	retlw	111	;'o'
  2177  0814  3420               	retlw	32	;' '
  2178  0815  3474               	retlw	116	;'t'
  2179  0816  346F               	retlw	111	;'o'
  2180  0817  3467               	retlw	103	;'g'
  2181  0818  3467               	retlw	103	;'g'
  2182  0819  346C               	retlw	108	;'l'
  2183  081A  3465               	retlw	101	;'e'
  2184  081B  3420               	retlw	32	;' '
  2185  081C  344C               	retlw	76	;'L'
  2186  081D  3445               	retlw	69	;'E'
  2187  081E  3444               	retlw	68	;'D'
  2188  081F  3473               	retlw	115	;'s'
  2189  0820  3420               	retlw	32	;' '
  2190  0821  3420               	retlw	32	;' '
  2191  0822  340A               	retlw	10
  2192  0823  3400               	retlw	0
  2193  0824                     STR_1:	
  2194  0824  3454               	retlw	84	;'T'
  2195  0825  346F               	retlw	111	;'o'
  2196  0826  3467               	retlw	103	;'g'
  2197  0827  3467               	retlw	103	;'g'
  2198  0828  346C               	retlw	108	;'l'
  2199  0829  3465               	retlw	101	;'e'
  2200  082A  3464               	retlw	100	;'d'
  2201  082B  3420               	retlw	32	;' '
  2202  082C  344C               	retlw	76	;'L'
  2203  082D  3445               	retlw	69	;'E'
  2204  082E  3444               	retlw	68	;'D'
  2205  082F  3420               	retlw	32	;' '
  2206  0830  3444               	retlw	68	;'D'
  2207  0831  3432               	retlw	50	;'2'
  2208  0832  340A               	retlw	10
  2209  0833  3400               	retlw	0
  2210  0834                     STR_2:	
  2211  0834  3454               	retlw	84	;'T'
  2212  0835  346F               	retlw	111	;'o'
  2213  0836  3467               	retlw	103	;'g'
  2214  0837  3467               	retlw	103	;'g'
  2215  0838  346C               	retlw	108	;'l'
  2216  0839  3465               	retlw	101	;'e'
  2217  083A  3464               	retlw	100	;'d'
  2218  083B  3420               	retlw	32	;' '
  2219  083C  344C               	retlw	76	;'L'
  2220  083D  3445               	retlw	69	;'E'
  2221  083E  3444               	retlw	68	;'D'
  2222  083F  3420               	retlw	32	;' '
  2223  0840  3444               	retlw	68	;'D'
  2224  0841  3433               	retlw	51	;'3'
  2225  0842  340A               	retlw	10
  2226  0843  3400               	retlw	0
  2227  0844                     STR_3:	
  2228  0844  3454               	retlw	84	;'T'
  2229  0845  346F               	retlw	111	;'o'
  2230  0846  3467               	retlw	103	;'g'
  2231  0847  3467               	retlw	103	;'g'
  2232  0848  346C               	retlw	108	;'l'
  2233  0849  3465               	retlw	101	;'e'
  2234  084A  3464               	retlw	100	;'d'
  2235  084B  3420               	retlw	32	;' '
  2236  084C  344C               	retlw	76	;'L'
  2237  084D  3445               	retlw	69	;'E'
  2238  084E  3444               	retlw	68	;'D'
  2239  084F  3420               	retlw	32	;' '
  2240  0850  3444               	retlw	68	;'D'
  2241  0851  3434               	retlw	52	;'4'
  2242  0852  340A               	retlw	10
  2243  0853  3400               	retlw	0
  2244  0854                     STR_4:	
  2245  0854  3454               	retlw	84	;'T'
  2246  0855  346F               	retlw	111	;'o'
  2247  0856  3467               	retlw	103	;'g'
  2248  0857  3467               	retlw	103	;'g'
  2249  0858  346C               	retlw	108	;'l'
  2250  0859  3465               	retlw	101	;'e'
  2251  085A  3464               	retlw	100	;'d'
  2252  085B  3420               	retlw	32	;' '
  2253  085C  344C               	retlw	76	;'L'
  2254  085D  3445               	retlw	69	;'E'
  2255  085E  3444               	retlw	68	;'D'
  2256  085F  3420               	retlw	32	;' '
  2257  0860  3444               	retlw	68	;'D'
  2258  0861  3435               	retlw	53	;'5'
  2259  0862  340A               	retlw	10
  2260  0863  3400               	retlw	0
  2261                           
  2262                           ; #config settings
  2263  0000                     
  2264                           	psect	cinit
  2265  07FD                     start_initialization:	
  2266  07FD                     __initialization:	
  2267  07FD                     end_of_initialization:	
  2268                           ;End of C runtime variable initialization code
  2269                           
  2270  07FD                     __end_of__initialization:	
  2271  07FD  0020               	movlb	0
  2272  07FE  3187  2FA5         	ljmp	_main	;jump to C main() function
  2273                           
  2274                           	psect	cstackCOMMON
  2275  0070                     __pcstackCOMMON:	
  2276  0070                     ?_PIN_MANAGER_Initialize:	
  2277  0070                     ??_PIN_MANAGER_Initialize:	
  2278                           ; 1 bytes @ 0x0
  2279                           
  2280  0070                     ?_OSCILLATOR_Initialize:	
  2281                           ; 1 bytes @ 0x0
  2282                           
  2283  0070                     ??_OSCILLATOR_Initialize:	
  2284                           ; 1 bytes @ 0x0
  2285                           
  2286  0070                     ?_EUSART_Initialize:	
  2287                           ; 1 bytes @ 0x0
  2288                           
  2289  0070                     ??_EUSART_Initialize:	
  2290                           ; 1 bytes @ 0x0
  2291                           
  2292  0070                     ?_EUSART_Read:	
  2293                           ; 1 bytes @ 0x0
  2294                           
  2295  0070                     ??_EUSART_Read:	
  2296                           ; 1 bytes @ 0x0
  2297                           
  2298  0070                     ?_EUSART_Write:	
  2299                           ; 1 bytes @ 0x0
  2300                           
  2301  0070                     ??_EUSART_Write:	
  2302                           ; 1 bytes @ 0x0
  2303                           
  2304  0070                     ?_getch:	
  2305                           ; 1 bytes @ 0x0
  2306                           
  2307  0070                     ??_getch:	
  2308                           ; 1 bytes @ 0x0
  2309                           
  2310  0070                     ?_putch:	
  2311                           ; 1 bytes @ 0x0
  2312                           
  2313  0070                     ?_SYSTEM_Initialize:	
  2314                           ; 1 bytes @ 0x0
  2315                           
  2316  0070                     ?_main:	
  2317                           ; 1 bytes @ 0x0
  2318                           
  2319  0070                     EUSART_Write@txData:	
  2320                           ; 1 bytes @ 0x0
  2321                           
  2322  0070                     PIN_MANAGER_Initialize@state:	
  2323                           ; 1 bytes @ 0x0
  2324                           
  2325                           
  2326                           ; 1 bytes @ 0x0
  2327  0070                     	ds	1
  2328  0071                     ??_putch:	
  2329  0071                     ??_SYSTEM_Initialize:	
  2330                           ; 1 bytes @ 0x1
  2331                           
  2332  0071                     putch@txData:	
  2333                           ; 1 bytes @ 0x1
  2334                           
  2335                           
  2336                           ; 1 bytes @ 0x1
  2337  0071                     	ds	1
  2338  0072                     ?_printf:	
  2339  0072                     printf@f:	
  2340                           ; 2 bytes @ 0x2
  2341                           
  2342                           
  2343                           ; 2 bytes @ 0x2
  2344  0072                     	ds	2
  2345  0074                     ??_printf:	
  2346                           
  2347                           ; 1 bytes @ 0x4
  2348  0074                     	ds	3
  2349  0077                     printf@ap:	
  2350                           
  2351                           ; 1 bytes @ 0x7
  2352  0077                     	ds	1
  2353  0078                     printf@c:	
  2354                           
  2355                           ; 1 bytes @ 0x8
  2356  0078                     	ds	1
  2357  0079                     ??_main:	
  2358                           
  2359                           	psect	maintext
  2360  07A5                     __pmaintext:	
  2361                           ; 1 bytes @ 0x9
  2362 ;;
  2363 ;;Main: autosize = 0, tempsize = 0, incstack = 0, save=0
  2364 ;;
  2365 ;; *************** function _main *****************
  2366 ;; Defined at:
  2367 ;;		line 6 in file "main.c"
  2368 ;; Parameters:    Size  Location     Type
  2369 ;;		None
  2370 ;; Auto vars:     Size  Location     Type
  2371 ;;  data            1    0        unsigned char 
  2372 ;; Return value:  Size  Location     Type
  2373 ;;                  1    wreg      void 
  2374 ;; Registers used:
  2375 ;;		wreg, fsr0l, fsr0h, status,2, status,0, pclath, cstack
  2376 ;; Tracked objects:
  2377 ;;		On entry : B1F/0
  2378 ;;		On exit  : 0/0
  2379 ;;		Unchanged: 0/0
  2380 ;; Data sizes:     COMMON   BANK0   BANK1   BANK2   BANK3   BANK4   BANK5   BANK6   BANK7   BANK8   BANK9  BANK10  BANK1
      +1  BANK12
  2381 ;;      Params:         0       0       0       0       0       0       0       0       0       0       0       0       
      +0       0
  2382 ;;      Locals:         0       0       0       0       0       0       0       0       0       0       0       0       
      +0       0
  2383 ;;      Temps:          0       0       0       0       0       0       0       0       0       0       0       0       
      +0       0
  2384 ;;      Totals:         0       0       0       0       0       0       0       0       0       0       0       0       
      +0       0
  2385 ;;Total ram usage:        0 bytes
  2386 ;; Hardware stack levels required when called:    3
  2387 ;; This function calls:
  2388 ;;		_SYSTEM_Initialize
  2389 ;;		_getch
  2390 ;;		_printf
  2391 ;; This function is called by:
  2392 ;;		Startup code after reset
  2393 ;; This function uses a non-reentrant model
  2394 ;;
  2395                           
  2396                           
  2397                           ;psect for function _main
  2398  07A5                     _main:	
  2399                           
  2400                           ;main.c: 10: char data;
  2401                           ;main.c: 12: SYSTEM_Initialize();
  2402                           
  2403                           ;incstack = 0
  2404                           ; Regs used in _main: [wreg-fsr0h+status,2+status,0+pclath+cstack]
  2405  07A5  3187  2736  3187   	fcall	_SYSTEM_Initialize
  2406                           
  2407                           ;main.c: 16: {
  2408                           ;main.c: 18: switch(getch()) {
  2409                           
  2410                           ;main.c: 15: while (1)
  2411  07A8  2FEC               	goto	l727
  2412  07A9                     l709:	
  2413                           ;main.c: 21: do { LATAbits.LATA0 = ~LATAbits.LATA0; } while(0);
  2414                           
  2415                           ;main.c: 20: case '1' :
  2416                           
  2417  07A9  1003               	clrc
  2418  07AA  0020               	movlb	0	; select bank0
  2419  07AB  1C16               	btfss	22,0	;volatile
  2420  07AC  1403               	setc
  2421  07AD  1C03               	btfss	3,0
  2422  07AE  2FB2               	goto	u160
  2423  07AF  0020               	movlb	0	; select bank0
  2424  07B0  1416               	bsf	22,0	;volatile
  2425  07B1  2FB4               	goto	l711
  2426  07B2                     u160:	
  2427  07B2  0020               	movlb	0	; select bank0
  2428  07B3  1016               	bcf	22,0	;volatile
  2429  07B4                     l711:	
  2430                           
  2431                           ;main.c: 22: printf("Toggled LED D2\n");
  2432  07B4  3024               	movlw	low (STR_1| (0+32768))
  2433  07B5  00F2               	movwf	printf@f
  2434  07B6  3088               	movlw	high (STR_1| (0+32768))
  2435  07B7  2FE8               	goto	L1
  2436  07B8                     l713:	
  2437                           ;main.c: 26: do { LATAbits.LATA1 = ~LATAbits.LATA1; } while(0);
  2438                           
  2439                           ;main.c: 25: case '2' :
  2440                           
  2441                           ;main.c: 23: break;
  2442                           
  2443  07B8  1003               	clrc
  2444  07B9  0020               	movlb	0	; select bank0
  2445  07BA  1C96               	btfss	22,1	;volatile
  2446  07BB  1403               	setc
  2447  07BC  1C03               	btfss	3,0
  2448  07BD  2FC1               	goto	u180
  2449  07BE  0020               	movlb	0	; select bank0
  2450  07BF  1496               	bsf	22,1	;volatile
  2451  07C0  2FC3               	goto	l715
  2452  07C1                     u180:	
  2453  07C1  0020               	movlb	0	; select bank0
  2454  07C2  1096               	bcf	22,1	;volatile
  2455  07C3                     l715:	
  2456                           
  2457                           ;main.c: 27: printf("Toggled LED D3\n");
  2458  07C3  3034               	movlw	low (STR_2| (0+32768))
  2459  07C4  00F2               	movwf	printf@f
  2460  07C5  3088               	movlw	high (STR_2| (0+32768))
  2461  07C6  2FE8               	goto	L1
  2462  07C7                     l717:	
  2463                           ;main.c: 31: do { LATAbits.LATA2 = ~LATAbits.LATA2; } while(0);
  2464                           
  2465                           ;main.c: 30: case '3' :
  2466                           
  2467                           ;main.c: 28: break;
  2468                           
  2469  07C7  1003               	clrc
  2470  07C8  0020               	movlb	0	; select bank0
  2471  07C9  1D16               	btfss	22,2	;volatile
  2472  07CA  1403               	setc
  2473  07CB  1C03               	btfss	3,0
  2474  07CC  2FD0               	goto	u200
  2475  07CD  0020               	movlb	0	; select bank0
  2476  07CE  1516               	bsf	22,2	;volatile
  2477  07CF  2FD2               	goto	l719
  2478  07D0                     u200:	
  2479  07D0  0020               	movlb	0	; select bank0
  2480  07D1  1116               	bcf	22,2	;volatile
  2481  07D2                     l719:	
  2482                           
  2483                           ;main.c: 32: printf("Toggled LED D4\n");
  2484  07D2  3044               	movlw	low (STR_3| (0+32768))
  2485  07D3  00F2               	movwf	printf@f
  2486  07D4  3088               	movlw	high (STR_3| (0+32768))
  2487  07D5  2FE8               	goto	L1
  2488  07D6                     l721:	
  2489                           ;main.c: 36: do { LATAbits.LATA3 = ~LATAbits.LATA3; } while(0);
  2490                           
  2491                           ;main.c: 35: case '4' :
  2492                           
  2493                           ;main.c: 33: break;
  2494                           
  2495  07D6  1003               	clrc
  2496  07D7  0020               	movlb	0	; select bank0
  2497  07D8  1D96               	btfss	22,3	;volatile
  2498  07D9  1403               	setc
  2499  07DA  1C03               	btfss	3,0
  2500  07DB  2FDF               	goto	u220
  2501  07DC  0020               	movlb	0	; select bank0
  2502  07DD  1596               	bsf	22,3	;volatile
  2503  07DE  2FE1               	goto	l723
  2504  07DF                     u220:	
  2505  07DF  0020               	movlb	0	; select bank0
  2506  07E0  1196               	bcf	22,3	;volatile
  2507  07E1                     l723:	
  2508                           
  2509                           ;main.c: 37: printf("Toggled LED D5\n");
  2510  07E1  3054               	movlw	low (STR_4| (0+32768))
  2511  07E2  00F2               	movwf	printf@f
  2512  07E3  3088               	movlw	high (STR_4| (0+32768))
  2513  07E4  2FE8               	goto	L1
  2514  07E5                     l725:	
  2515                           ;main.c: 40: default :
  2516                           
  2517                           ;main.c: 38: break;
  2518                           
  2519                           
  2520                           ;main.c: 41: printf("\nType 1,2,3, or 4 to toggle LEDs  \n" );
  2521  07E5  3000               	movlw	low (STR_5| (0+32768))
  2522  07E6  00F2               	movwf	printf@f
  2523  07E7  3088               	movlw	high (STR_5| (0+32768))
  2524  07E8                     L1:	
  2525  07E8  00F3               	movwf	printf@f+1
  2526  07E9  3187  2754  3187   	fcall	_printf
  2527  07EC                     l727:	
  2528                           ;main.c: 42: }
  2529                           
  2530  07EC  3187  271D  3187   	fcall	_getch
  2531                           
  2532                           ; Switch size 1, requested type "space"
  2533                           ; Number of cases is 4, Range of values is 49 to 52
  2534                           ; switch strategies available:
  2535                           ; Name         Instructions Cycles
  2536                           ; simple_byte           13     7 (average)
  2537                           ; direct_byte           17     9 (fixed)
  2538                           ; jumptable            263     9 (fixed)
  2539                           ;	Chosen strategy is simple_byte
  2540  07EF  3A31               	xorlw	49	; case 49
  2541  07F0  1903               	skipnz
  2542  07F1  2FA9               	goto	l709
  2543  07F2  3A03               	xorlw	3	; case 50
  2544  07F3  1903               	skipnz
  2545  07F4  2FB8               	goto	l713
  2546  07F5  3A01               	xorlw	1	; case 51
  2547  07F6  1903               	skipnz
  2548  07F7  2FC7               	goto	l717
  2549  07F8  3A07               	xorlw	7	; case 52
  2550  07F9  1903               	skipnz
  2551  07FA  2FD6               	goto	l721
  2552  07FB  2FE5               	goto	l725
  2553  07FC  2FEC               	goto	l727
  2554  07FD                     __end_of_main:	
  2555                           
  2556                           	psect	text1
  2557  0754                     __ptext1:	
  2558 ;; *************** function _printf *****************
  2559 ;; Defined at:
  2560 ;;		line 464 in file "/opt/microchip/xc8/v1.41/sources/common/doprnt.c"
  2561 ;; Parameters:    Size  Location     Type
  2562 ;;  f               2    2[COMMON] PTR const unsigned char 
  2563 ;;		 -> STR_5(36), STR_4(16), STR_3(16), STR_2(16), 
  2564 ;;		 -> STR_1(16), 
  2565 ;; Auto vars:     Size  Location     Type
  2566 ;;  tmpval          4    0        struct .
  2567 ;;  cp              2    0        PTR const unsigned char 
  2568 ;;  len             2    0        unsigned int 
  2569 ;;  val             2    0        unsigned int 
  2570 ;;  c               1    8[COMMON] char 
  2571 ;;  ap              1    7[COMMON] PTR void [1]
  2572 ;;		 -> ?_printf(2), 
  2573 ;;  flag            1    0        unsigned char 
  2574 ;;  prec            1    0        char 
  2575 ;; Return value:  Size  Location     Type
  2576 ;;                  2    2[COMMON] int 
  2577 ;; Registers used:
  2578 ;;		wreg, fsr0l, fsr0h, status,2, status,0, pclath, cstack
  2579 ;; Tracked objects:
  2580 ;;		On entry : 0/0
  2581 ;;		On exit  : 0/0
  2582 ;;		Unchanged: 0/0
  2583 ;; Data sizes:     COMMON   BANK0   BANK1   BANK2   BANK3   BANK4   BANK5   BANK6   BANK7   BANK8   BANK9  BANK10  BANK1
      +1  BANK12
  2584 ;;      Params:         2       0       0       0       0       0       0       0       0       0       0       0       
      +0       0
  2585 ;;      Locals:         2       0       0       0       0       0       0       0       0       0       0       0       
      +0       0
  2586 ;;      Temps:          3       0       0       0       0       0       0       0       0       0       0       0       
      +0       0
  2587 ;;      Totals:         7       0       0       0       0       0       0       0       0       0       0       0       
      +0       0
  2588 ;;Total ram usage:        7 bytes
  2589 ;; Hardware stack levels used:    1
  2590 ;; Hardware stack levels required when called:    2
  2591 ;; This function calls:
  2592 ;;		_putch
  2593 ;; This function is called by:
  2594 ;;		_main
  2595 ;; This function uses a non-reentrant model
  2596 ;;
  2597                           
  2598                           
  2599                           ;psect for function _printf
  2600  0754                     _printf:	
  2601                           
  2602                           ;doprnt.c: 466: va_list ap;
  2603                           ;doprnt.c: 499: signed char c;
  2604                           ;doprnt.c: 506: signed char prec;
  2605                           ;doprnt.c: 508: unsigned char flag;
  2606                           ;doprnt.c: 523: union {
  2607                           ;doprnt.c: 524: unsigned long vd;
  2608                           ;doprnt.c: 525: double integ;
  2609                           ;doprnt.c: 526: } tmpval;
  2610                           ;doprnt.c: 528: unsigned int val;
  2611                           ;doprnt.c: 529: unsigned len;
  2612                           ;doprnt.c: 530: const char * cp;
  2613                           ;doprnt.c: 533: *ap = __va_start();
  2614                           
  2615                           ;incstack = 0
  2616                           ; Regs used in _printf: [wreg-fsr0h+status,2+status,0+pclath+cstack]
  2617  0754  3074               	movlw	(low ((?_printf| 0+2)))& (0+255)
  2618  0755  00F4               	movwf	??_printf
  2619  0756  0874               	movf	??_printf,w
  2620  0757  00F7               	movwf	printf@ap
  2621  0758                     l705:	
  2622                           ;doprnt.c: 543: }
  2623                           ;doprnt.c: 1422: {
  2624                           
  2625                           ;doprnt.c: 542: continue;
  2626                           
  2627                           ;doprnt.c: 536: while(c = *f++) {
  2628                           
  2629  0758  0873               	movf	printf@f+1,w
  2630  0759  00F5               	movwf	??_printf+1
  2631  075A  0872               	movf	printf@f,w
  2632  075B  00F4               	movwf	??_printf
  2633  075C  0AF2               	incf	printf@f,f
  2634  075D  1903               	skipnz
  2635  075E  0AF3               	incf	printf@f+1,f
  2636  075F  0874               	movf	??_printf,w
  2637  0760  0084               	movwf	4
  2638  0761  0875               	movf	??_printf+1,w
  2639  0762  0085               	movwf	5
  2640  0763  0800               	movf	0,w	;code access
  2641  0764  00F6               	movwf	??_printf+2
  2642  0765  0876               	movf	??_printf+2,w
  2643  0766  00F8               	movwf	printf@c
  2644  0767  0878               	movf	printf@c,w
  2645  0768  1903               	btfsc	3,2
  2646  0769  0008               	return
  2647                           
  2648                           ;doprnt.c: 540: {
  2649                           ;doprnt.c: 541: (putch(c) );
  2650  076A  0878               	movf	printf@c,w
  2651  076B  3187  2720  3187   	fcall	_putch
  2652  076E  2F58               	goto	l705
  2653  076F                     __end_of_printf:	
  2654                           ;doprnt.c: 1469: }
  2655                           ;doprnt.c: 1533: }
  2656                           ;doprnt.c: 1540: return 0;
  2657                           ;	Return value of _printf is never used
  2658                           
  2659                           
  2660                           	psect	text2
  2661  0720                     __ptext2:	
  2662 ;; *************** function _putch *****************
  2663 ;; Defined at:
  2664 ;;		line 110 in file "mcc_generated_files/eusart.c"
  2665 ;; Parameters:    Size  Location     Type
  2666 ;;  txData          1    wreg     unsigned char 
  2667 ;; Auto vars:     Size  Location     Type
  2668 ;;  txData          1    1[COMMON] unsigned char 
  2669 ;; Return value:  Size  Location     Type
  2670 ;;                  1    wreg      void 
  2671 ;; Registers used:
  2672 ;;		wreg, status,2, status,0, pclath, cstack
  2673 ;; Tracked objects:
  2674 ;;		On entry : 0/0
  2675 ;;		On exit  : 0/0
  2676 ;;		Unchanged: 0/0
  2677 ;; Data sizes:     COMMON   BANK0   BANK1   BANK2   BANK3   BANK4   BANK5   BANK6   BANK7   BANK8   BANK9  BANK10  BANK1
      +1  BANK12
  2678 ;;      Params:         0       0       0       0       0       0       0       0       0       0       0       0       
      +0       0
  2679 ;;      Locals:         1       0       0       0       0       0       0       0       0       0       0       0       
      +0       0
  2680 ;;      Temps:          0       0       0       0       0       0       0       0       0       0       0       0       
      +0       0
  2681 ;;      Totals:         1       0       0       0       0       0       0       0       0       0       0       0       
      +0       0
  2682 ;;Total ram usage:        1 bytes
  2683 ;; Hardware stack levels used:    1
  2684 ;; Hardware stack levels required when called:    1
  2685 ;; This function calls:
  2686 ;;		_EUSART_Write
  2687 ;; This function is called by:
  2688 ;;		_printf
  2689 ;; This function uses a non-reentrant model
  2690 ;;
  2691                           
  2692                           
  2693                           ;psect for function _putch
  2694  0720                     _putch:	
  2695                           
  2696                           ;incstack = 0
  2697                           ; Regs used in _putch: [wreg+status,2+status,0+pclath+cstack]
  2698                           ;putch@txData stored from wreg
  2699  0720  00F1               	movwf	putch@txData
  2700                           
  2701                           ;eusart.c: 112: EUSART_Write(txData);
  2702  0721  0871               	movf	putch@txData,w
  2703  0722  3187  2725         	fcall	_EUSART_Write
  2704  0724  0008               	return
  2705  0725                     __end_of_putch:	
  2706                           
  2707                           	psect	text3
  2708  0725                     __ptext3:	
  2709 ;; *************** function _EUSART_Write *****************
  2710 ;; Defined at:
  2711 ;;		line 96 in file "mcc_generated_files/eusart.c"
  2712 ;; Parameters:    Size  Location     Type
  2713 ;;  txData          1    wreg     unsigned char 
  2714 ;; Auto vars:     Size  Location     Type
  2715 ;;  txData          1    0[COMMON] unsigned char 
  2716 ;; Return value:  Size  Location     Type
  2717 ;;                  1    wreg      void 
  2718 ;; Registers used:
  2719 ;;		wreg
  2720 ;; Tracked objects:
  2721 ;;		On entry : 0/0
  2722 ;;		On exit  : 0/0
  2723 ;;		Unchanged: 0/0
  2724 ;; Data sizes:     COMMON   BANK0   BANK1   BANK2   BANK3   BANK4   BANK5   BANK6   BANK7   BANK8   BANK9  BANK10  BANK1
      +1  BANK12
  2725 ;;      Params:         0       0       0       0       0       0       0       0       0       0       0       0       
      +0       0
  2726 ;;      Locals:         1       0       0       0       0       0       0       0       0       0       0       0       
      +0       0
  2727 ;;      Temps:          0       0       0       0       0       0       0       0       0       0       0       0       
      +0       0
  2728 ;;      Totals:         1       0       0       0       0       0       0       0       0       0       0       0       
      +0       0
  2729 ;;Total ram usage:        1 bytes
  2730 ;; Hardware stack levels used:    1
  2731 ;; This function calls:
  2732 ;;		Nothing
  2733 ;; This function is called by:
  2734 ;;		_putch
  2735 ;; This function uses a non-reentrant model
  2736 ;;
  2737                           
  2738                           
  2739                           ;psect for function _EUSART_Write
  2740  0725                     _EUSART_Write:	
  2741                           
  2742                           ;incstack = 0
  2743                           ; Regs used in _EUSART_Write: [wreg]
  2744                           ;EUSART_Write@txData stored from wreg
  2745  0725  00F0               	movwf	EUSART_Write@txData
  2746  0726                     l31:	
  2747                           ;eusart.c: 99: {
  2748                           
  2749                           ;eusart.c: 98: while(0 == PIR3bits.TXIF)
  2750                           
  2751  0726  002E               	movlb	14	; select bank14
  2752  0727  1E0F               	btfss	15,4	;volatile
  2753  0728  2F26               	goto	l31
  2754                           
  2755                           ;eusart.c: 100: }
  2756                           ;eusart.c: 102: TX1REG = txData;
  2757  0729  0870               	movf	EUSART_Write@txData,w
  2758  072A  0022               	movlb	2	; select bank2
  2759  072B  009A               	movwf	26	;volatile
  2760  072C  0008               	return
  2761  072D                     __end_of_EUSART_Write:	
  2762                           
  2763                           	psect	text4
  2764  071D                     __ptext4:	
  2765 ;; *************** function _getch *****************
  2766 ;; Defined at:
  2767 ;;		line 105 in file "mcc_generated_files/eusart.c"
  2768 ;; Parameters:    Size  Location     Type
  2769 ;;		None
  2770 ;; Auto vars:     Size  Location     Type
  2771 ;;		None
  2772 ;; Return value:  Size  Location     Type
  2773 ;;                  1    wreg      unsigned char 
  2774 ;; Registers used:
  2775 ;;		wreg, pclath, cstack
  2776 ;; Tracked objects:
  2777 ;;		On entry : 0/0
  2778 ;;		On exit  : 0/0
  2779 ;;		Unchanged: 0/0
  2780 ;; Data sizes:     COMMON   BANK0   BANK1   BANK2   BANK3   BANK4   BANK5   BANK6   BANK7   BANK8   BANK9  BANK10  BANK1
      +1  BANK12
  2781 ;;      Params:         0       0       0       0       0       0       0       0       0       0       0       0       
      +0       0
  2782 ;;      Locals:         0       0       0       0       0       0       0       0       0       0       0       0       
      +0       0
  2783 ;;      Temps:          0       0       0       0       0       0       0       0       0       0       0       0       
      +0       0
  2784 ;;      Totals:         0       0       0       0       0       0       0       0       0       0       0       0       
      +0       0
  2785 ;;Total ram usage:        0 bytes
  2786 ;; Hardware stack levels used:    1
  2787 ;; Hardware stack levels required when called:    1
  2788 ;; This function calls:
  2789 ;;		_EUSART_Read
  2790 ;; This function is called by:
  2791 ;;		_main
  2792 ;; This function uses a non-reentrant model
  2793 ;;
  2794                           
  2795                           
  2796                           ;psect for function _getch
  2797  071D                     _getch:	
  2798                           
  2799                           ;eusart.c: 107: return EUSART_Read();
  2800                           
  2801                           ;incstack = 0
  2802                           ; Regs used in _getch: [wreg+pclath+cstack]
  2803  071D  3187  273F         	fcall	_EUSART_Read
  2804  071F  0008               	return
  2805  0720                     __end_of_getch:	
  2806                           
  2807                           	psect	text5
  2808  073F                     __ptext5:	
  2809 ;; *************** function _EUSART_Read *****************
  2810 ;; Defined at:
  2811 ;;		line 77 in file "mcc_generated_files/eusart.c"
  2812 ;; Parameters:    Size  Location     Type
  2813 ;;		None
  2814 ;; Auto vars:     Size  Location     Type
  2815 ;;		None
  2816 ;; Return value:  Size  Location     Type
  2817 ;;                  1    wreg      unsigned char 
  2818 ;; Registers used:
  2819 ;;		wreg
  2820 ;; Tracked objects:
  2821 ;;		On entry : 0/0
  2822 ;;		On exit  : 0/0
  2823 ;;		Unchanged: 0/0
  2824 ;; Data sizes:     COMMON   BANK0   BANK1   BANK2   BANK3   BANK4   BANK5   BANK6   BANK7   BANK8   BANK9  BANK10  BANK1
      +1  BANK12
  2825 ;;      Params:         0       0       0       0       0       0       0       0       0       0       0       0       
      +0       0
  2826 ;;      Locals:         0       0       0       0       0       0       0       0       0       0       0       0       
      +0       0
  2827 ;;      Temps:          0       0       0       0       0       0       0       0       0       0       0       0       
      +0       0
  2828 ;;      Totals:         0       0       0       0       0       0       0       0       0       0       0       0       
      +0       0
  2829 ;;Total ram usage:        0 bytes
  2830 ;; Hardware stack levels used:    1
  2831 ;; This function calls:
  2832 ;;		Nothing
  2833 ;; This function is called by:
  2834 ;;		_getch
  2835 ;; This function uses a non-reentrant model
  2836 ;;
  2837                           
  2838                           
  2839                           ;psect for function _EUSART_Read
  2840  073F                     _EUSART_Read:	
  2841  073F                     l24:	
  2842                           ;eusart.c: 81: {
  2843                           
  2844                           ;eusart.c: 80: while(!PIR3bits.RCIF)
  2845                           
  2846                           ;incstack = 0
  2847                           ; Regs used in _EUSART_Read: [wreg]
  2848                           
  2849  073F  002E               	movlb	14	; select bank14
  2850  0740  1E8F               	btfss	15,5	;volatile
  2851  0741  2F3F               	goto	l24
  2852                           
  2853                           ;eusart.c: 82: }
  2854                           ;eusart.c: 85: if(1 == RC1STAbits.OERR)
  2855  0742  0022               	movlb	2	; select bank2
  2856  0743  1C9D               	btfss	29,1	;volatile
  2857  0744  2F47               	goto	l623
  2858                           
  2859                           ;eusart.c: 86: {
  2860                           ;eusart.c: 89: RC1STAbits.CREN = 0;
  2861  0745  121D               	bcf	29,4	;volatile
  2862                           
  2863                           ;eusart.c: 90: RC1STAbits.CREN = 1;
  2864  0746  161D               	bsf	29,4	;volatile
  2865  0747                     l623:	
  2866                           
  2867                           ;eusart.c: 91: }
  2868                           ;eusart.c: 93: return RC1REG;
  2869  0747  0819               	movf	25,w	;volatile
  2870  0748  0008               	return
  2871  0749                     __end_of_EUSART_Read:	
  2872                           
  2873                           	psect	text6
  2874  0736                     __ptext6:	
  2875 ;; *************** function _SYSTEM_Initialize *****************
  2876 ;; Defined at:
  2877 ;;		line 82 in file "mcc_generated_files/mcc.c"
  2878 ;; Parameters:    Size  Location     Type
  2879 ;;		None
  2880 ;; Auto vars:     Size  Location     Type
  2881 ;;		None
  2882 ;; Return value:  Size  Location     Type
  2883 ;;                  1    wreg      void 
  2884 ;; Registers used:
  2885 ;;		wreg, status,2, status,0, pclath, cstack
  2886 ;; Tracked objects:
  2887 ;;		On entry : 0/0
  2888 ;;		On exit  : 0/0
  2889 ;;		Unchanged: 0/0
  2890 ;; Data sizes:     COMMON   BANK0   BANK1   BANK2   BANK3   BANK4   BANK5   BANK6   BANK7   BANK8   BANK9  BANK10  BANK1
      +1  BANK12
  2891 ;;      Params:         0       0       0       0       0       0       0       0       0       0       0       0       
      +0       0
  2892 ;;      Locals:         0       0       0       0       0       0       0       0       0       0       0       0       
      +0       0
  2893 ;;      Temps:          0       0       0       0       0       0       0       0       0       0       0       0       
      +0       0
  2894 ;;      Totals:         0       0       0       0       0       0       0       0       0       0       0       0       
      +0       0
  2895 ;;Total ram usage:        0 bytes
  2896 ;; Hardware stack levels used:    1
  2897 ;; Hardware stack levels required when called:    1
  2898 ;; This function calls:
  2899 ;;		_EUSART_Initialize
  2900 ;;		_OSCILLATOR_Initialize
  2901 ;;		_PIN_MANAGER_Initialize
  2902 ;; This function is called by:
  2903 ;;		_main
  2904 ;; This function uses a non-reentrant model
  2905 ;;
  2906                           
  2907                           
  2908                           ;psect for function _SYSTEM_Initialize
  2909  0736                     _SYSTEM_Initialize:	
  2910                           
  2911                           ;mcc.c: 85: PIN_MANAGER_Initialize();
  2912                           
  2913                           ;incstack = 0
  2914                           ; Regs used in _SYSTEM_Initialize: [wreg+status,2+status,0+pclath+cstack]
  2915  0736  3187  276F  3187   	fcall	_PIN_MANAGER_Initialize
  2916                           
  2917                           ;mcc.c: 86: OSCILLATOR_Initialize();
  2918  0739  3187  272D  3187   	fcall	_OSCILLATOR_Initialize
  2919                           
  2920                           ;mcc.c: 87: EUSART_Initialize();
  2921  073C  3187  2749         	fcall	_EUSART_Initialize
  2922  073E  0008               	return
  2923  073F                     __end_of_SYSTEM_Initialize:	
  2924                           
  2925                           	psect	text7
  2926  076F                     __ptext7:	
  2927 ;; *************** function _PIN_MANAGER_Initialize *****************
  2928 ;; Defined at:
  2929 ;;		line 51 in file "mcc_generated_files/pin_manager.c"
  2930 ;; Parameters:    Size  Location     Type
  2931 ;;		None
  2932 ;; Auto vars:     Size  Location     Type
  2933 ;;  state           1    0[COMMON] unsigned char 
  2934 ;; Return value:  Size  Location     Type
  2935 ;;                  1    wreg      void 
  2936 ;; Registers used:
  2937 ;;		wreg, status,2, status,0
  2938 ;; Tracked objects:
  2939 ;;		On entry : 0/0
  2940 ;;		On exit  : 0/0
  2941 ;;		Unchanged: 0/0
  2942 ;; Data sizes:     COMMON   BANK0   BANK1   BANK2   BANK3   BANK4   BANK5   BANK6   BANK7   BANK8   BANK9  BANK10  BANK1
      +1  BANK12
  2943 ;;      Params:         0       0       0       0       0       0       0       0       0       0       0       0       
      +0       0
  2944 ;;      Locals:         1       0       0       0       0       0       0       0       0       0       0       0       
      +0       0
  2945 ;;      Temps:          0       0       0       0       0       0       0       0       0       0       0       0       
      +0       0
  2946 ;;      Totals:         1       0       0       0       0       0       0       0       0       0       0       0       
      +0       0
  2947 ;;Total ram usage:        1 bytes
  2948 ;; Hardware stack levels used:    1
  2949 ;; This function calls:
  2950 ;;		Nothing
  2951 ;; This function is called by:
  2952 ;;		_SYSTEM_Initialize
  2953 ;; This function uses a non-reentrant model
  2954 ;;
  2955                           
  2956                           
  2957                           ;psect for function _PIN_MANAGER_Initialize
  2958  076F                     _PIN_MANAGER_Initialize:	
  2959                           
  2960                           ;pin_manager.c: 56: LATA = 0x00;
  2961                           
  2962                           ;incstack = 0
  2963                           ; Regs used in _PIN_MANAGER_Initialize: [wreg+status,2+status,0]
  2964  076F  0020               	movlb	0	; select bank0
  2965  0770  0196               	clrf	22	;volatile
  2966                           
  2967                           ;pin_manager.c: 57: LATB = 0x00;
  2968  0771  0197               	clrf	23	;volatile
  2969                           
  2970                           ;pin_manager.c: 58: LATC = 0x00;
  2971  0772  0198               	clrf	24	;volatile
  2972                           
  2973                           ;pin_manager.c: 63: TRISA = 0xF0;
  2974  0773  30F0               	movlw	240
  2975  0774  0091               	movwf	17	;volatile
  2976                           
  2977                           ;pin_manager.c: 64: TRISB = 0xFF;
  2978  0775  30FF               	movlw	255
  2979  0776  0092               	movwf	18	;volatile
  2980                           
  2981                           ;pin_manager.c: 65: TRISC = 0xFE;
  2982  0777  30FE               	movlw	254
  2983  0778  0093               	movwf	19	;volatile
  2984                           
  2985                           ;pin_manager.c: 70: ANSELC = 0xFD;
  2986  0779  30FD               	movlw	253
  2987  077A  003E               	movlb	30	; select bank30
  2988  077B  00CE               	movwf	78	;volatile
  2989                           
  2990                           ;pin_manager.c: 71: ANSELB = 0xFF;
  2991  077C  30FF               	movlw	255
  2992  077D  00C3               	movwf	67	;volatile
  2993                           
  2994                           ;pin_manager.c: 72: ANSELA = 0xFF;
  2995  077E  30FF               	movlw	255
  2996  077F  00B8               	movwf	56	;volatile
  2997                           
  2998                           ;pin_manager.c: 77: WPUE = 0x00;
  2999  0780  01E5               	clrf	101	;volatile
  3000                           
  3001                           ;pin_manager.c: 78: WPUB = 0x00;
  3002  0781  01C4               	clrf	68	;volatile
  3003                           
  3004                           ;pin_manager.c: 79: WPUA = 0x00;
  3005  0782  01B9               	clrf	57	;volatile
  3006                           
  3007                           ;pin_manager.c: 80: WPUC = 0x00;
  3008  0783  01CF               	clrf	79	;volatile
  3009                           
  3010                           ;pin_manager.c: 85: ODCONA = 0x00;
  3011  0784  01BA               	clrf	58	;volatile
  3012                           
  3013                           ;pin_manager.c: 86: ODCONB = 0x00;
  3014  0785  01C5               	clrf	69	;volatile
  3015                           
  3016                           ;pin_manager.c: 87: ODCONC = 0x00;
  3017  0786  01D0               	clrf	80	;volatile
  3018                           
  3019                           ;pin_manager.c: 94: bool state = GIE;
  3020  0787  3000               	movlw	0
  3021  0788  1B8B               	btfsc	11,7	;volatile
  3022  0789  3001               	movlw	1
  3023  078A  00F0               	movwf	PIN_MANAGER_Initialize@state
  3024                           
  3025                           ;pin_manager.c: 95: GIE = 0;
  3026  078B  138B               	bcf	11,7	;volatile
  3027                           
  3028                           ;pin_manager.c: 96: PPSLOCK = 0x55;
  3029  078C  3055               	movlw	85
  3030  078D  003D               	movlb	29	; select bank29
  3031  078E  008F               	movwf	15	;volatile
  3032                           
  3033                           ;pin_manager.c: 97: PPSLOCK = 0xAA;
  3034  078F  30AA               	movlw	170
  3035  0790  008F               	movwf	15	;volatile
  3036                           
  3037                           ;pin_manager.c: 98: PPSLOCKbits.PPSLOCKED = 0x00;
  3038  0791  100F               	bcf	15,0	;volatile
  3039                           
  3040                           ;pin_manager.c: 100: RC0PPS = 0x10;
  3041  0792  3010               	movlw	16
  3042  0793  003E               	movlb	30	; select bank30
  3043  0794  00A0               	movwf	32	;volatile
  3044                           
  3045                           ;pin_manager.c: 101: RXPPSbits.RXPPS = 0x11;
  3046  0795  003D               	movlb	29	; select bank29
  3047  0796  084B               	movf	75,w	;volatile
  3048  0797  39E0               	andlw	-32
  3049  0798  3811               	iorlw	17
  3050  0799  00CB               	movwf	75	;volatile
  3051                           
  3052                           ;pin_manager.c: 103: PPSLOCK = 0x55;
  3053  079A  3055               	movlw	85
  3054  079B  008F               	movwf	15	;volatile
  3055                           
  3056                           ;pin_manager.c: 104: PPSLOCK = 0xAA;
  3057  079C  30AA               	movlw	170
  3058  079D  008F               	movwf	15	;volatile
  3059                           
  3060                           ;pin_manager.c: 105: PPSLOCKbits.PPSLOCKED = 0x01;
  3061  079E  140F               	bsf	15,0	;volatile
  3062                           
  3063                           ;pin_manager.c: 107: GIE = state;
  3064  079F  1C70               	btfss	PIN_MANAGER_Initialize@state,0
  3065  07A0  2FA3               	goto	u40
  3066  07A1  178B               	bsf	11,7	;volatile
  3067  07A2  0008               	return
  3068  07A3                     u40:	
  3069  07A3  138B               	bcf	11,7	;volatile
  3070  07A4  0008               	return
  3071  07A5                     __end_of_PIN_MANAGER_Initialize:	
  3072                           
  3073                           	psect	text8
  3074  072D                     __ptext8:	
  3075 ;; *************** function _OSCILLATOR_Initialize *****************
  3076 ;; Defined at:
  3077 ;;		line 90 in file "mcc_generated_files/mcc.c"
  3078 ;; Parameters:    Size  Location     Type
  3079 ;;		None
  3080 ;; Auto vars:     Size  Location     Type
  3081 ;;		None
  3082 ;; Return value:  Size  Location     Type
  3083 ;;                  1    wreg      void 
  3084 ;; Registers used:
  3085 ;;		wreg, status,2
  3086 ;; Tracked objects:
  3087 ;;		On entry : 0/0
  3088 ;;		On exit  : 0/0
  3089 ;;		Unchanged: 0/0
  3090 ;; Data sizes:     COMMON   BANK0   BANK1   BANK2   BANK3   BANK4   BANK5   BANK6   BANK7   BANK8   BANK9  BANK10  BANK1
      +1  BANK12
  3091 ;;      Params:         0       0       0       0       0       0       0       0       0       0       0       0       
      +0       0
  3092 ;;      Locals:         0       0       0       0       0       0       0       0       0       0       0       0       
      +0       0
  3093 ;;      Temps:          0       0       0       0       0       0       0       0       0       0       0       0       
      +0       0
  3094 ;;      Totals:         0       0       0       0       0       0       0       0       0       0       0       0       
      +0       0
  3095 ;;Total ram usage:        0 bytes
  3096 ;; Hardware stack levels used:    1
  3097 ;; This function calls:
  3098 ;;		Nothing
  3099 ;; This function is called by:
  3100 ;;		_SYSTEM_Initialize
  3101 ;; This function uses a non-reentrant model
  3102 ;;
  3103                           
  3104                           
  3105                           ;psect for function _OSCILLATOR_Initialize
  3106  072D                     _OSCILLATOR_Initialize:	
  3107                           
  3108                           ;mcc.c: 93: OSCCON1 = 0x62;
  3109                           
  3110                           ;incstack = 0
  3111                           ; Regs used in _OSCILLATOR_Initialize: [wreg+status,2]
  3112  072D  3062               	movlw	98
  3113  072E  0031               	movlb	17	; select bank17
  3114  072F  008D               	movwf	13	;volatile
  3115                           
  3116                           ;mcc.c: 95: OSCCON3 = 0x00;
  3117  0730  018F               	clrf	15	;volatile
  3118                           
  3119                           ;mcc.c: 97: OSCEN = 0x00;
  3120  0731  0191               	clrf	17	;volatile
  3121                           
  3122                           ;mcc.c: 99: OSCFRQ = 0x02;
  3123  0732  3002               	movlw	2
  3124  0733  0093               	movwf	19	;volatile
  3125                           
  3126                           ;mcc.c: 101: OSCTUNE = 0x00;
  3127  0734  0192               	clrf	18	;volatile
  3128  0735  0008               	return
  3129  0736                     __end_of_OSCILLATOR_Initialize:	
  3130                           
  3131                           	psect	text9
  3132  0749                     __ptext9:	
  3133 ;; *************** function _EUSART_Initialize *****************
  3134 ;; Defined at:
  3135 ;;		line 55 in file "mcc_generated_files/eusart.c"
  3136 ;; Parameters:    Size  Location     Type
  3137 ;;		None
  3138 ;; Auto vars:     Size  Location     Type
  3139 ;;		None
  3140 ;; Return value:  Size  Location     Type
  3141 ;;                  1    wreg      void 
  3142 ;; Registers used:
  3143 ;;		wreg, status,2
  3144 ;; Tracked objects:
  3145 ;;		On entry : 0/0
  3146 ;;		On exit  : 0/0
  3147 ;;		Unchanged: 0/0
  3148 ;; Data sizes:     COMMON   BANK0   BANK1   BANK2   BANK3   BANK4   BANK5   BANK6   BANK7   BANK8   BANK9  BANK10  BANK1
      +1  BANK12
  3149 ;;      Params:         0       0       0       0       0       0       0       0       0       0       0       0       
      +0       0
  3150 ;;      Locals:         0       0       0       0       0       0       0       0       0       0       0       0       
      +0       0
  3151 ;;      Temps:          0       0       0       0       0       0       0       0       0       0       0       0       
      +0       0
  3152 ;;      Totals:         0       0       0       0       0       0       0       0       0       0       0       0       
      +0       0
  3153 ;;Total ram usage:        0 bytes
  3154 ;; Hardware stack levels used:    1
  3155 ;; This function calls:
  3156 ;;		Nothing
  3157 ;; This function is called by:
  3158 ;;		_SYSTEM_Initialize
  3159 ;; This function uses a non-reentrant model
  3160 ;;
  3161                           
  3162                           
  3163                           ;psect for function _EUSART_Initialize
  3164  0749                     _EUSART_Initialize:	
  3165                           
  3166                           ;eusart.c: 60: BAUD1CON = 0x09;
  3167                           
  3168                           ;incstack = 0
  3169                           ; Regs used in _EUSART_Initialize: [wreg+status,2]
  3170  0749  3009               	movlw	9
  3171  074A  0022               	movlb	2	; select bank2
  3172  074B  009F               	movwf	31	;volatile
  3173                           
  3174                           ;eusart.c: 63: RC1STA = 0x90;
  3175  074C  3090               	movlw	144
  3176  074D  009D               	movwf	29	;volatile
  3177                           
  3178                           ;eusart.c: 66: TX1STA = 0x24;
  3179  074E  3024               	movlw	36
  3180  074F  009E               	movwf	30	;volatile
  3181                           
  3182                           ;eusart.c: 69: SP1BRGL = 0x0C;
  3183  0750  300C               	movlw	12
  3184  0751  009B               	movwf	27	;volatile
  3185                           
  3186                           ;eusart.c: 72: SP1BRGH = 0x00;
  3187  0752  019C               	clrf	28	;volatile
  3188  0753  0008               	return
  3189  0754                     __end_of_EUSART_Initialize:	
  3190  007E                     btemp	set	126	;btemp
  3191  007E                     wtemp0	set	126


Data Sizes:
    Strings     100
    Constant    0
    Data        0
    BSS         0
    Persistent  0
    Stack       0

Auto Spaces:
    Space          Size  Autos    Used
    COMMON           14      9       9
    BANK0            80      0       0
    BANK1            80      0       0
    BANK2            80      0       0
    BANK3            80      0       0
    BANK4            80      0       0
    BANK5            80      0       0
    BANK6            80      0       0
    BANK7            80      0       0
    BANK8            80      0       0
    BANK9            80      0       0
    BANK10           80      0       0
    BANK11           80      0       0
    BANK12           48      0       0

Pointer List with Targets:

    printf@f	PTR const unsigned char  size(2) Largest target is 36
		 -> STR_5(CODE[36]), STR_4(CODE[16]), STR_3(CODE[16]), STR_2(CODE[16]), 
		 -> STR_1(CODE[16]), 

    printf@ap	PTR void [1] size(1) Largest target is 2
		 -> ?_printf(COMMON[2]), 


Critical Paths under _main in COMMON

    _main->_printf
    _printf->_putch
    _putch->_EUSART_Write
    _SYSTEM_Initialize->_PIN_MANAGER_Initialize

Critical Paths under _main in BANK0

    None.

Critical Paths under _main in BANK1

    None.

Critical Paths under _main in BANK2

    None.

Critical Paths under _main in BANK3

    None.

Critical Paths under _main in BANK4

    None.

Critical Paths under _main in BANK5

    None.

Critical Paths under _main in BANK6

    None.

Critical Paths under _main in BANK7

    None.

Critical Paths under _main in BANK8

    None.

Critical Paths under _main in BANK9

    None.

Critical Paths under _main in BANK10

    None.

Critical Paths under _main in BANK11

    None.

Critical Paths under _main in BANK12

    None.

Call Graph Tables:

 ---------------------------------------------------------------------------------
 (Depth) Function   	        Calls       Base Space   Used Autos Params    Refs
 ---------------------------------------------------------------------------------
 (0) _main                                                 1     1      0     411
                  _SYSTEM_Initialize
                              _getch
                             _printf
 ---------------------------------------------------------------------------------
 (1) _printf                                              19    17      2     396
                                              2 COMMON     7     5      2
                              _putch
 ---------------------------------------------------------------------------------
 (2) _putch                                                1     1      0      30
                                              1 COMMON     1     1      0
                       _EUSART_Write
 ---------------------------------------------------------------------------------
 (3) _EUSART_Write                                         1     1      0      15
                                              0 COMMON     1     1      0
 ---------------------------------------------------------------------------------
 (1) _getch                                                0     0      0       0
                        _EUSART_Read
 ---------------------------------------------------------------------------------
 (2) _EUSART_Read                                          0     0      0       0
 ---------------------------------------------------------------------------------
 (1) _SYSTEM_Initialize                                    0     0      0      15
                  _EUSART_Initialize
              _OSCILLATOR_Initialize
             _PIN_MANAGER_Initialize
 ---------------------------------------------------------------------------------
 (2) _PIN_MANAGER_Initialize                               1     1      0      15
                                              0 COMMON     1     1      0
 ---------------------------------------------------------------------------------
 (2) _OSCILLATOR_Initialize                                0     0      0       0
 ---------------------------------------------------------------------------------
 (2) _EUSART_Initialize                                    0     0      0       0
 ---------------------------------------------------------------------------------
 Estimated maximum stack depth 3
 ---------------------------------------------------------------------------------

 Call Graph Graphs:

 _main (ROOT)
   _SYSTEM_Initialize
     _EUSART_Initialize
     _OSCILLATOR_Initialize
     _PIN_MANAGER_Initialize
   _getch
     _EUSART_Read
   _printf
     _putch
       _EUSART_Write

 Address spaces:
Name               Size   Autos  Total    Cost      Usage
BIGRAM             3F0      0       0       0        0.0%
EEDATA             100      0       0       0        0.0%
NULL                 0      0       0       0        0.0%
CODE                 0      0       0       0        0.0%
BITCOMMON            E      0       0       1        0.0%
BITSFR0              0      0       0       1        0.0%
SFR0                 0      0       0       1        0.0%
COMMON               E      9       9       2       64.3%
BITSFR1              0      0       0       2        0.0%
SFR1                 0      0       0       2        0.0%
BITSFR2              0      0       0       3        0.0%
SFR2                 0      0       0       3        0.0%
STACK                0      0       0       3        0.0%
BITBANK0            50      0       0       4        0.0%
BITSFR3              0      0       0       4        0.0%
SFR3                 0      0       0       4        0.0%
BANK0               50      0       0       5        0.0%
BITSFR4              0      0       0       5        0.0%
SFR4                 0      0       0       5        0.0%
BITBANK1            50      0       0       6        0.0%
BITSFR5              0      0       0       6        0.0%
SFR5                 0      0       0       6        0.0%
BANK1               50      0       0       7        0.0%
BITSFR6              0      0       0       7        0.0%
SFR6                 0      0       0       7        0.0%
BITBANK2            50      0       0       8        0.0%
BITSFR7              0      0       0       8        0.0%
SFR7                 0      0       0       8        0.0%
BANK2               50      0       0       9        0.0%
BITSFR8              0      0       0       9        0.0%
SFR8                 0      0       0       9        0.0%
BITBANK3            50      0       0      10        0.0%
BITSFR9              0      0       0      10        0.0%
SFR9                 0      0       0      10        0.0%
BANK3               50      0       0      11        0.0%
BITSFR10             0      0       0      11        0.0%
SFR10                0      0       0      11        0.0%
BITBANK4            50      0       0      12        0.0%
BITSFR11             0      0       0      12        0.0%
SFR11                0      0       0      12        0.0%
BANK4               50      0       0      13        0.0%
BITSFR12             0      0       0      13        0.0%
SFR12                0      0       0      13        0.0%
BITBANK5            50      0       0      14        0.0%
BITSFR13             0      0       0      14        0.0%
SFR13                0      0       0      14        0.0%
BANK5               50      0       0      15        0.0%
BITSFR14             0      0       0      15        0.0%
SFR14                0      0       0      15        0.0%
BITBANK6            50      0       0      16        0.0%
BITSFR15             0      0       0      16        0.0%
SFR15                0      0       0      16        0.0%
BANK6               50      0       0      17        0.0%
BITSFR16             0      0       0      17        0.0%
SFR16                0      0       0      17        0.0%
BITBANK7            50      0       0      18        0.0%
BITSFR17             0      0       0      18        0.0%
SFR17                0      0       0      18        0.0%
BANK7               50      0       0      19        0.0%
BITSFR18             0      0       0      19        0.0%
SFR18                0      0       0      19        0.0%
BITSFR19             0      0       0      20        0.0%
SFR19                0      0       0      20        0.0%
ABS                  0      0       0      20        0.0%
BITBANK8            50      0       0      21        0.0%
BITSFR20             0      0       0      21        0.0%
SFR20                0      0       0      21        0.0%
BANK8               50      0       0      22        0.0%
BITSFR21             0      0       0      22        0.0%
SFR21                0      0       0      22        0.0%
BITBANK9            50      0       0      23        0.0%
BITSFR22             0      0       0      23        0.0%
SFR22                0      0       0      23        0.0%
BANK9               50      0       0      24        0.0%
BITSFR23             0      0       0      24        0.0%
SFR23                0      0       0      24        0.0%
BITBANK10           50      0       0      25        0.0%
BITSFR24             0      0       0      25        0.0%
SFR24                0      0       0      25        0.0%
BANK10              50      0       0      26        0.0%
BITSFR25             0      0       0      26        0.0%
SFR25                0      0       0      26        0.0%
BITBANK11           50      0       0      27        0.0%
BITSFR26             0      0       0      27        0.0%
SFR26                0      0       0      27        0.0%
BANK11              50      0       0      28        0.0%
BITSFR27             0      0       0      28        0.0%
SFR27                0      0       0      28        0.0%
BITBANK12           30      0       0      29        0.0%
BITSFR28             0      0       0      29        0.0%
SFR28                0      0       0      29        0.0%
BANK12              30      0       0      30        0.0%
BITSFR29             0      0       0      30        0.0%
SFR29                0      0       0      30        0.0%
BITSFR30             0      0       0      31        0.0%
SFR30                0      0       0      31        0.0%
DATA                 0      0       0      31        0.0%
BITSFR31             0      0       0      32        0.0%
SFR31                0      0       0      32        0.0%


Microchip Technology PIC Macro Assembler V1.41 build -162212810 
Symbol Table                                                                                   Wed Mar 29 18:35:59 2017

                    __CFG_CP$OFF 0000                               l31 0726                               l24 073F  
                             u40 07A3                      __CFG_LVP$ON 0000                      __CFG_ZCD$ON 0000  
                            l623 0747                              l711 07B4                              l705 0758  
                            l721 07D6                              l713 07B8                              l723 07E1  
                            l715 07C3                              l725 07E5                              l717 07C7  
                            l709 07A9                              l719 07D2                              l727 07EC  
                            _GIE 005F                              u200 07D0                              u220 07DF  
                            u160 07B2                              u180 07C1                     __CFG_CPD$OFF 0000  
                   __CFG_BORV$LO 0000                     ?_EUSART_Read 0070                             STR_1 0824  
                           STR_2 0834                             STR_3 0844                             STR_4 0854  
                           STR_5 0800                             _LATA 0016                             _LATB 0017  
                           _LATC 0018                             _WPUA 0F39                             _WPUB 0F44  
                           _WPUC 0F4F                             _WPUE 0F65                     __CFG_WRT$OFF 0000  
                  __CFG_FCMEN$ON 0000                             _main 07A5                             fsr0h 0005  
                           indf0 0000                             fsr0l 0004                             btemp 007E  
                  __CFG_BOREN$ON 0000                             start 0002                    __CFG_CSWEN$ON 0000  
                  __CFG_MCLRE$ON 0000                    ?_EUSART_Write 0070   __size_of_OSCILLATOR_Initialize 0009  
  __end_of_OSCILLATOR_Initialize 0736                            ?_main 0070                    __CFG_WDTE$OFF 0000  
                          _OSCEN 0891                            _TRISA 0011                            _TRISB 0012  
                          _TRISC 0013                            _getch 071D                            _putch 0720  
                          status 0003                            wtemp0 007E                  __initialization 07FD  
                   __end_of_main 07FD                   ??_EUSART_Write 0070                           ??_main 0079  
                         ?_getch 0070                           _ANSELA 0F38                           ?_putch 0070  
                         _ANSELB 0F43                           _ANSELC 0F4E               __CFG_RSTOSC$HFINT1 0000  
                         _RC1REG 0119                           _RC0PPS 0F20                           _RC1STA 011D  
                         _ODCONA 0F3A                           _ODCONB 0F45                           _ODCONC 0F50  
                 __CFG_WDTCCS$SC 0000                           _OSCFRQ 0893                           _TX1REG 011A  
                         _TX1STA 011E                   __CFG_PWRTE$OFF 0000                   __CFG_STVREN$ON 0000  
                         _printf 0754             __size_of_EUSART_Read 000A                _SYSTEM_Initialize 0736  
        __end_of__initialization 07FD               ?_SYSTEM_Initialize 0070                   __pcstackCOMMON 0070  
            ??_SYSTEM_Initialize 0071                    __end_of_getch 0720                    __end_of_putch 0725  
                        ??_getch 0070        __end_of_SYSTEM_Initialize 073F                          ??_putch 0071  
           __end_of_EUSART_Write 072D                       __pmaintext 07A5                  __CFG_PPS1WAY$ON 0000  
                        ?_printf 0072                          _SP1BRGH 011C                          _SP1BRGL 011B  
                        _OSCCON1 088D                          _OSCCON3 088F                          _OSCTUNE 0892  
                        _PPSLOCK 0E8F             __CFG_SCANE$available 0000                          __ptext1 0754  
                        __ptext2 0720                          __ptext3 0725                          __ptext4 071D  
                        __ptext5 073F                          __ptext6 0736                          __ptext7 076F  
                        __ptext8 072D                          __ptext9 0749                  __size_of_printf 001B  
          _OSCILLATOR_Initialize 072D         ??_PIN_MANAGER_Initialize 0070       __size_of_SYSTEM_Initialize 0009  
           end_of_initialization 07FD                _EUSART_Initialize 0749               ?_EUSART_Initialize 0070  
                        printf@c 0078                          printf@f 0072                     __pstringtext 0800  
          __CFG_WDTCPS$WDTCPS_31 0000              ??_EUSART_Initialize 0070            __size_of_EUSART_Write 0008  
               __CFG_FEXTOSC$OFF 0000                        _RXPPSbits 0ECB        __end_of_EUSART_Initialize 0754  
                   _EUSART_Write 0725           ?_OSCILLATOR_Initialize 0070                   __end_of_printf 076F  
            start_initialization 07FD  __size_of_PIN_MANAGER_Initialize 0036                    ??_EUSART_Read 0070  
                    putch@txData 0071                 __CFG_LPBOREN$OFF 0000                         ??_printf 0074  
                      ___latbits 0002       __size_of_EUSART_Initialize 000B              __end_of_EUSART_Read 0749  
         _PIN_MANAGER_Initialize 076F                         _BAUD1CON 011F                   __size_of_getch 0003  
                 __size_of_putch 0005                         _LATAbits 0016                         _PIR3bits 070F  
                    _EUSART_Read 073F          ??_OSCILLATOR_Initialize 0070                    __size_of_main 0058  
           __CFG_WDTCWS$WDTCWS_7 0000                       _RC1STAbits 011D      PIN_MANAGER_Initialize@state 0070  
        ?_PIN_MANAGER_Initialize 0070                __CFG_CLKOUTEN$OFF 0000                      _PPSLOCKbits 0E8F  
                       printf@ap 0077               EUSART_Write@txData 0070   __end_of_PIN_MANAGER_Initialize 07A5  
